Certificate:
    Data:
        Version: 3 (0x2)
        Serial Number: 3 (0x3)
        Signature Algorithm: sha256WithRSAEncryption
        Issuer: C=EU, O=EUROPEAN UNION, OU=EUROPEAN COMMISSION, CN=CSCA
        Validity
            Not Before: Jun 24 16:33:01 2020 GMT
            Not After : Jun 24 16:33:01 2030 GMT
        Subject: C=EU, CN=B2
        Subject Public Key Info:
            Public Key Algorithm: rsaEncryption
                RSA Public-Key: (2048 bit)
                Modulus:
                    00:bd:f5:ca:65:4c:50:5b:3f:6e:ef:88:27:bc:d1:
                    b0:f2:26:50:35:0a:ab:bc:ac:85:5c:df:4e:b7:fa:
                    f3:f0:0e:8d:ba:3c:71:31:52:ac:73:ec:c5:d4:7e:
                    69:54:72:5e:57:82:18:c4:bc:fb:6d:b9:86:21:db:
                    d2:9c:5c:9a:f2:f3:05:81:86:f3:6a:a4:cb:36:22:
                    a0:d8:93:31:ea:4e:c6:6c:18:4b:2a:7b:43:cd:57:
                    99:4a:65:c7:6c:48:13:4e:0f:b5:63:43:16:ac:1a:
                    8e:86:cc:da:60:ba:33:1a:57:f3:93:7e:2d:09:1d:
                    6e:2c:17:d9:26:b0:72:3f:82:4d:67:88:dc:4c:8f:
                    76:2d:d9:eb:75:1e:4c:b1:52:9c:00:66:25:c4:36:
                    82:b7:70:d7:2c:15:0b:96:94:7c:85:12:f8:53:7e:
                    03:b9:1a:aa:67:67:64:67:15:43:25:d8:21:fb:94:
                    f1:c5:99:56:13:9f:d7:3a:d7:c9:26:8c:f7:23:f5:
                    a2:8f:c1:e8:43:1b:f8:f3:7a:98:b0:68:7a:5d:54:
                    1c:15:2d:5b:63:da:3f:bf:d4:6e:2b:7c:51:76:43:
                    3b:df:e1:66:d0:49:b9:64:31:72:a0:d0:d5:b5:6c:
                    49:d9:ab:28:7f:f6:e0:fb:a7:6e:2d:07:fa:38:49:
                    6c:95
                Exponent: 65537 (0x10001)
        X509v3 extensions:
            X509v3 Authority Key Identifier: 
                keyid:0F:5D:12:A4:85:4A:A6:2A:C7:4D:AB:B6:8C:FF:E2:6D:6B:13:B2:13

            X509v3 Extended Key Usage: 
                2.23.136.1.1.11.1
    Signature Algorithm: sha256WithRSAEncryption
         56:ec:0e:17:73:9c:6f:75:72:77:93:78:4e:d0:3b:db:b9:da:
         af:00:c6:d6:26:3f:d2:3c:9f:8f:23:e9:62:f0:e5:89:f0:29:
         58:30:1a:d7:b3:0f:48:2f:bb:3b:a0:96:06:0c:ba:22:0a:3b:
         c2:13:0b:42:1f:f7:de:36:53:a8:57:5a:8c:c7:3c:7b:4b:26:
         10:9e:fc:dd:42:db:39:42:7d:07:ea:45:d8:77:48:94:b5:12:
         3f:4b:d0:e2:b5:1d:63:9c:2c:62:4b:60:99:4d:a6:bb:d7:00:
         a9:64:9a:dc:74:83:e9:3e:14:e8:13:36:c3:f6:4c:a0:47:d9:
         e4:f9:f3:3a:c5:07:e7:ba:79:ee:4b:53:12:74:be:28:e0:a3:
         e3:af:22:46:4d:01:d1:11:2e:2d:dd:e9:2b:c8:51:99:9d:5e:
         d5:b3:85:86:51:b5:96:0a:c8:3d:99:22:3e:79:d3:7a:8f:a3:
         02:2d:12:42:90:9a:cb:d5:19:dc:40:7b:73:38:44:8e:84:8b:
         d1:2f:1a:17:92:b6:62:ac:fa:f5:3b:ba:ac:a8:00:f0:af:d1:
         36:09:27:18:93:d0:b1:ae:1e:2a:34:44:30:d0:32:0e:db:01:
         4d:29:cc:d9:e9:6f:a9:82:26:73:d6:ae:e1:b2:8f:52:25:17:
         ff:65:67:61:2e:a7:fe:35:43:3f:5b:a7:36:e7:7e:d5:35:06:
         ec:fa:52:f6:d2:9c:c9:ba:b6:d3:e2:ef:6a:c3:f0:b5:31:d3:
         02:90:1e:d6:02:72:c1:e3:79:c3:36:c5:f9:47:f8:b5:f9:bb:
         f4:6d:e1:1b:b0:49:08:23:d2:98:03:73:e7:f1:61:e6:90:8c:
         35:56:f9:ec:e3:9a:a9:35:d1:83:7a:b9:d2:a8:2e:51:f3:40:
         60:b7:70:65:91:5f:77:d0:e6:3b:eb:e5:09:23:6a:08:d0:cd:
         e8:a4:ea:4f:52:b8:ba:de:83:90:66:fe:b9:f0:d5:b6:dc:59:
         f2:d8:72:80:1e:75:6d:97:7e:e6:41:3e:76:d7:b1:5a:e9:e1:
         9e:fc:67:05:f9:8b:17:f1:a4:f6:3c:e7:ec:08:06:34:8a:77:
         b6:04:07:84:5b:19:50:54:39:1d:2e:35:44:f9:b3:bb:96:c9:
         f5:fe:c3:5d:b9:f3:4f:a2:68:72:15:de:35:46:f5:78:f2:11:
         1b:a6:f2:7c:82:aa:cd:25:85:35:c2:17:58:75:ee:29:3b:e1:
         2c:30:22:34:a0:93:72:3e:e9:6c:95:ad:d7:49:7c:e8:d2:55:
         11:c7:22:92:a4:34:2d:90:1e:73:78:c3:b2:8a:9f:c4:2c:6d:
         9d:61:03:43:db:28:5a:f2
-----BEGIN CERTIFICATE-----
MIIEHzCCAgegAwIBAgIBAzANBgkqhkiG9w0BAQsFADBTMQswCQYDVQQGEwJFVTEX
MBUGA1UECgwORVVST1BFQU4gVU5JT04xHDAaBgNVBAsME0VVUk9QRUFOIENPTU1J
U1NJT04xDTALBgNVBAMMBENTQ0EwHhcNMjAwNjI0MTYzMzAxWhcNMzAwNjI0MTYz
MzAxWjAaMQswCQYDVQQGEwJFVTELMAkGA1UEAwwCQjIwggEiMA0GCSqGSIb3DQEB
AQUAA4IBDwAwggEKAoIBAQC99cplTFBbP27viCe80bDyJlA1Cqu8rIVc3063+vPw
Do26PHExUqxz7MXUfmlUcl5XghjEvPttuYYh29KcXJry8wWBhvNqpMs2IqDYkzHq
TsZsGEsqe0PNV5lKZcdsSBNOD7VjQxasGo6GzNpgujMaV/OTfi0JHW4sF9kmsHI/
gk1niNxMj3Yt2et1HkyxUpwAZiXENoK3cNcsFQuWlHyFEvhTfgO5GqpnZ2RnFUMl
2CH7lPHFmVYTn9c618kmjPcj9aKPwehDG/jzepiwaHpdVBwVLVtj2j+/1G4rfFF2
Qzvf4WbQSblkMXKg0NW1bEnZqyh/9uD7p24tB/o4SWyVAgMBAAGjNzA1MB8GA1Ud
IwQYMBaAFA9dEqSFSqYqx02rtoz/4m1rE7ITMBIGA1UdJQQLMAkGB2eBCAEBCwEw
DQYJKoZIhvcNAQELBQADggIBAFbsDhdznG91cneTeE7QO9u52q8AxtYmP9I8n48j
6WLw5YnwKVgwGtezD0gvuzuglgYMuiIKO8ITC0If9942U6hXWozHPHtLJhCe/N1C
2zlCfQfqRdh3SJS1Ej9L0OK1HWOcLGJLYJlNprvXAKlkmtx0g+k+FOgTNsP2TKBH
2eT58zrFB+e6ee5LUxJ0vijgo+OvIkZNAdERLi3d6SvIUZmdXtWzhYZRtZYKyD2Z
Ij5503qPowItEkKQmsvVGdxAe3M4RI6Ei9EvGheStmKs+vU7uqyoAPCv0TYJJxiT
0LGuHio0RDDQMg7bAU0pzNnpb6mCJnPWruGyj1IlF/9lZ2Eup/41Qz9bpzbnftU1
Buz6UvbSnMm6ttPi72rD8LUx0wKQHtYCcsHjecM2xflH+LX5u/Rt4RuwSQgj0pgD
c+fxYeaQjDVW+ezjmqk10YN6udKoLlHzQGC3cGWRX3fQ5jvr5QkjagjQzeik6k9S
uLreg5Bm/rnw1bbcWfLYcoAedW2XfuZBPnbXsVrp4Z78ZwX5ixfxpPY85+wIBjSK
d7YEB4RbGVBUOR0uNUT5s7uWyfX+w12580+iaHIV3jVG9XjyERum8nyCqs0lhTXC
F1h17ik74SwwIjSgk3I+6WyVrddJfOjSVRHHIpKkNC2QHnN4w7KKn8QsbZ1hA0Pb
KFry
-----END CERTIFICATE-----
