Certificate:
    Data:
        Version: 3 (0x2)
        Serial Number: 2 (0x2)
        Signature Algorithm: sha256WithRSAEncryption
        Issuer: C=EU, O=EUROPEAN UNION, OU=EUROPEAN COMMISSION, CN=CSCA
        Validity
            Not Before: Jun 24 16:27:15 2020 GMT
            Not After : Jun 24 16:27:15 2030 GMT
        Subject: C=EU, CN=B1
        Subject Public Key Info:
            Public Key Algorithm: rsaEncryption
                RSA Public-Key: (2048 bit)
                Modulus:
                    00:e4:ce:d6:8a:8b:66:a2:4d:45:c1:f6:d5:71:25:
                    a2:11:3f:bb:c4:af:04:58:dd:8b:12:12:57:0f:1c:
                    5d:e3:dd:51:c4:7f:cb:6e:2b:ac:8e:1b:2e:18:3a:
                    04:a3:20:21:4a:de:77:56:05:c6:5e:eb:db:68:09:
                    1b:54:66:fe:cf:2c:07:94:df:7e:90:bd:71:ea:93:
                    7e:d8:19:73:e9:d5:b6:db:d5:01:20:77:5a:4e:d4:
                    c2:16:81:82:1a:5c:3a:ed:30:e5:97:43:f1:e4:70:
                    1c:b8:55:1a:b7:9a:00:31:ad:04:99:75:13:aa:61:
                    a0:7e:18:dd:da:65:f0:20:c3:df:a0:89:8a:70:a1:
                    ef:a7:52:82:6e:d1:81:8f:ab:70:df:62:1e:5e:d6:
                    0c:3d:1c:cf:3f:4d:fa:0d:48:dd:df:94:e7:83:fa:
                    5b:c2:49:20:3f:6a:79:32:4c:a5:c1:64:ba:02:06:
                    de:1e:34:4c:05:8a:56:ed:f8:77:9f:62:da:41:fa:
                    77:50:c3:97:68:2d:6d:1e:86:d9:37:d7:36:c1:3f:
                    86:08:2e:9d:5e:8b:d3:e5:56:a1:8a:5d:11:5e:8d:
                    63:08:27:21:ee:8a:df:21:90:50:81:f8:30:ec:06:
                    a3:26:2a:e1:f3:ed:97:cd:c3:7f:49:d5:f0:bf:33:
                    e4:91
                Exponent: 65537 (0x10001)
        X509v3 extensions:
            X509v3 Authority Key Identifier: 
                keyid:0F:5D:12:A4:85:4A:A6:2A:C7:4D:AB:B6:8C:FF:E2:6D:6B:13:B2:13

            X509v3 Extended Key Usage: 
                2.23.136.1.1.11.1
    Signature Algorithm: sha256WithRSAEncryption
         23:2c:12:e8:8d:ae:7d:4b:40:fc:a4:2d:86:a8:d8:71:f3:40:
         50:4d:2e:0d:98:1d:fb:ae:99:1b:e3:08:67:96:b0:75:9c:69:
         bb:01:82:89:f7:06:13:2a:67:b2:92:b9:4a:87:b2:b3:18:9a:
         9f:e8:7b:8d:f5:0f:8d:87:53:35:ef:31:3e:04:d5:10:50:6d:
         5f:ce:ad:94:0b:e1:a0:06:25:c2:07:9f:f1:35:0a:47:16:88:
         0c:b1:54:7c:f9:88:81:6a:bb:37:e7:af:e5:be:f3:a4:91:78:
         17:58:c2:e6:e7:ab:73:77:c6:d1:aa:05:6b:40:c8:99:22:d1:
         44:a3:92:ff:98:73:68:e6:b6:9e:40:65:bd:68:ba:4e:22:44:
         f0:8e:b5:90:15:df:f8:e3:4f:8a:a9:09:5b:d3:7a:6f:a1:77:
         c8:a5:54:3e:df:90:d6:fd:d7:3f:10:5b:47:7d:36:e3:b6:ed:
         a7:0e:33:c5:e0:9f:75:ab:19:e3:dd:44:60:b5:12:97:6f:1b:
         8d:86:85:f0:43:78:76:a7:e9:54:d6:09:28:41:21:22:cb:25:
         9e:89:fe:4e:be:c3:6a:73:fb:dc:ea:a8:35:66:2c:ee:38:15:
         26:03:16:e9:fb:28:d6:4d:b1:72:5b:86:87:29:5f:ec:e5:14:
         36:10:44:15:43:fd:19:11:59:6f:70:0f:50:18:1a:97:b0:ea:
         2f:6f:cd:75:e3:7a:59:58:9b:3a:ac:d9:ae:ee:97:b1:86:5b:
         ac:09:a8:7b:f5:c8:0a:2f:1c:a2:46:66:a5:df:2e:c5:fc:b7:
         bc:92:45:75:67:40:02:04:45:2b:f7:a5:db:3b:8d:a7:c9:8b:
         a2:41:56:a0:a4:17:e3:ce:0e:f4:e3:a7:fd:db:68:ff:23:ea:
         b3:4c:ae:9a:51:25:00:8e:61:77:b9:b7:7e:ae:22:91:4d:85:
         95:af:5f:23:6e:0c:6c:6e:26:f0:10:75:b1:c7:54:ec:48:bc:
         bc:d1:4a:d9:38:3d:7a:ff:76:86:f6:2e:bd:3b:21:14:4f:60:
         fc:3d:3a:8b:d8:f5:cc:04:89:69:94:60:3a:c7:30:17:45:fb:
         c2:8e:24:2a:76:54:39:d7:41:a3:eb:b4:a8:85:85:8f:c1:75:
         cc:e6:e0:af:5a:cf:ec:1c:ee:e9:15:7e:00:41:07:dd:ed:e3:
         fe:4d:15:6d:90:bb:d1:66:30:f5:bf:12:c1:b7:b0:f1:ed:95:
         cd:d2:f4:ae:0a:23:19:1b:a3:0a:49:95:50:17:4b:98:40:92:
         d7:fb:ba:ea:e4:57:2b:30:28:3c:de:c4:6a:ff:10:0a:6b:26:
         8c:30:96:25:84:cd:ae:b8
-----BEGIN CERTIFICATE-----
MIIEHzCCAgegAwIBAgIBAjANBgkqhkiG9w0BAQsFADBTMQswCQYDVQQGEwJFVTEX
MBUGA1UECgwORVVST1BFQU4gVU5JT04xHDAaBgNVBAsME0VVUk9QRUFOIENPTU1J
U1NJT04xDTALBgNVBAMMBENTQ0EwHhcNMjAwNjI0MTYyNzE1WhcNMzAwNjI0MTYy
NzE1WjAaMQswCQYDVQQGEwJFVTELMAkGA1UEAwwCQjEwggEiMA0GCSqGSIb3DQEB
AQUAA4IBDwAwggEKAoIBAQDkztaKi2aiTUXB9tVxJaIRP7vErwRY3YsSElcPHF3j
3VHEf8tuK6yOGy4YOgSjICFK3ndWBcZe69toCRtUZv7PLAeU336QvXHqk37YGXPp
1bbb1QEgd1pO1MIWgYIaXDrtMOWXQ/HkcBy4VRq3mgAxrQSZdROqYaB+GN3aZfAg
w9+giYpwoe+nUoJu0YGPq3DfYh5e1gw9HM8/TfoNSN3flOeD+lvCSSA/ankyTKXB
ZLoCBt4eNEwFilbt+HefYtpB+ndQw5doLW0ehtk31zbBP4YILp1ei9PlVqGKXRFe
jWMIJyHuit8hkFCB+DDsBqMmKuHz7ZfNw39J1fC/M+SRAgMBAAGjNzA1MB8GA1Ud
IwQYMBaAFA9dEqSFSqYqx02rtoz/4m1rE7ITMBIGA1UdJQQLMAkGB2eBCAEBCwEw
DQYJKoZIhvcNAQELBQADggIBACMsEuiNrn1LQPykLYao2HHzQFBNLg2YHfuumRvj
CGeWsHWcabsBgon3BhMqZ7KSuUqHsrMYmp/oe431D42HUzXvMT4E1RBQbV/OrZQL
4aAGJcIHn/E1CkcWiAyxVHz5iIFquzfnr+W+86SReBdYwubnq3N3xtGqBWtAyJki
0USjkv+Yc2jmtp5AZb1ouk4iRPCOtZAV3/jjT4qpCVvTem+hd8ilVD7fkNb91z8Q
W0d9NuO27acOM8Xgn3WrGePdRGC1EpdvG42GhfBDeHan6VTWCShBISLLJZ6J/k6+
w2pz+9zqqDVmLO44FSYDFun7KNZNsXJbhocpX+zlFDYQRBVD/RkRWW9wD1AYGpew
6i9vzXXjellYmzqs2a7ul7GGW6wJqHv1yAovHKJGZqXfLsX8t7ySRXVnQAIERSv3
pds7jafJi6JBVqCkF+PODvTjp/3baP8j6rNMrppRJQCOYXe5t36uIpFNhZWvXyNu
DGxuJvAQdbHHVOxIvLzRStk4PXr/dob2Lr07IRRPYPw9OovY9cwEiWmUYDrHMBdF
+8KOJCp2VDnXQaPrtKiFhY/Bdczm4K9az+wc7ukVfgBBB93t4/5NFW2Qu9FmMPW/
EsG3sPHtlc3S9K4KIxkbowpJlVAXS5hAktf7uurkVyswKDzexGr/EAprJowwliWE
za64
-----END CERTIFICATE-----
