Certificate:
    Data:
        Version: 1 (0x0)
        Serial Number: 95135737097 (0x1626882509)
        Signature Algorithm: sha256WithRSAEncryption
        Issuer: C=UT, O=UTOPIA, CN=CSCA
        Validity
            Not Before: Jul 21 15:48:52 2021 GMT
            Not After : Jul 20 15:48:52 2024 GMT
        Subject: C=UT, CN=B1
        Subject Public Key Info:
            Public Key Algorithm: id-ecPublicKey
                Public-Key: (256 bit)
                pub:
                    04:59:f8:c6:e0:7f:78:c5:7b:cc:3d:4f:31:6a:4a:
                    c7:d2:2f:10:8e:b9:c8:1b:85:c8:98:86:cd:94:e0:
                    df:cb:a1:01:5e:3e:a9:c2:66:37:7f:14:6c:a9:f0:
                    72:98:da:46:cd:52:df:a7:45:65:2d:7c:02:22:6a:
                    0c:b0:09:5f:ce
                Field Type: prime-field
                Prime:
                    00:a9:fb:57:db:a1:ee:a9:bc:3e:66:0a:90:9d:83:
                    8d:72:6e:3b:f6:23:d5:26:20:28:20:13:48:1d:1f:
                    6e:53:77
                A:   
                    7d:5a:09:75:fc:2c:30:57:ee:f6:75:30:41:7a:ff:
                    e7:fb:80:55:c1:26:dc:5c:6c:e9:4a:4b:44:f3:30:
                    b5:d9
                B:   
                    26:dc:5c:6c:e9:4a:4b:44:f3:30:b5:d9:bb:d7:7c:
                    bf:95:84:16:29:5c:f7:e1:ce:6b:cc:dc:18:ff:8c:
                    07:b6
                Generator (uncompressed):
                    04:8b:d2:ae:b9:cb:7e:57:cb:2c:4b:48:2f:fc:81:
                    b7:af:b9:de:27:e1:e3:bd:23:c2:3a:44:53:bd:9a:
                    ce:32:62:54:7e:f8:35:c3:da:c4:fd:97:f8:46:1a:
                    14:61:1d:c9:c2:77:45:13:2d:ed:8e:54:5c:1d:54:
                    c7:2f:04:69:97
                Order: 
                    00:a9:fb:57:db:a1:ee:a9:bc:3e:66:0a:90:9d:83:
                    8d:71:8c:39:7a:a3:b5:61:a6:f7:90:1e:0e:82:97:
                    48:56:a7
                Cofactor:  1 (0x1)
    Signature Algorithm: sha256WithRSAEncryption
         b9:75:d8:c4:e6:f2:da:8b:bf:d8:29:7f:61:20:84:f6:35:a2:
         ac:19:b3:ad:2b:d2:ec:4e:07:c3:93:c0:bd:1a:a8:d4:99:e5:
         ed:b5:9c:08:b2:e7:a5:74:da:3a:83:9d:31:53:a3:4c:a0:79:
         17:76:e3:2c:ec:6b:b9:c6:3c:00:76:33:b5:42:ee:12:4b:46:
         22:7f:d2:f2:ff:c8:1d:a5:d4:76:64:93:b4:1b:ef:9e:4f:62:
         50:c5:ad:6a:54:19:8e:13:f3:0e:b5:f0:8a:57:0f:82:b5:cd:
         0b:cf:ad:ed:52:57:60:e6:90:2c:2f:c9:e5:a2:79:02:86:60:
         c3:17:55:3b:a5:eb:90:28:ae:16:19:0a:28:fc:bd:6c:f0:ef:
         db:01:b4:86:83:84:93:15:06:a0:64:f6:91:6a:4e:08:d8:a9:
         83:bf:e8:0d:a6:c8:c9:b0:9c:29:33:e4:9b:c1:f9:76:47:b1:
         27:02:9c:b8:27:10:28:fe:27:29:41:1f:82:14:dd:1c:a7:81:
         1c:b0:49:e2:9a:b3:2a:41:b9:b4:46:58:72:6c:9d:14:b0:b0:
         1f:7c:fa:0b:28:ec:81:bd:b2:5f:a5:44:4e:a3:eb:b1:ea:81:
         16:f6:3c:c5:b1:bd:10:37:05:19:a6:90:dc:2e:37:4f:b9:de:
         08:04:fc:cc:cd:ca:ea:01:51:1f:fa:de:1b:f4:17:cc:97:0d:
         f7:07:9e:6b:89:ae:19:fb:eb:81:6a:1f:6e:84:0a:67:6c:f1:
         ef:9a:35:ff:1d:b9:79:2e:14:7a:eb:bb:bb:2b:0d:32:a2:d0:
         a0:b2:fc:3d:bf:9c:cc:e9:04:84:4b:9b:90:ee:f2:ee:cc:eb:
         ad:30:a3:a3:9f:01:d9:2a:fc:80:99:0d:d2:dc:5f:7f:84:fe:
         59:82:89:df:a4:38:0e:2d:19:e8:1a:f9:56:fd:6e:65:89:67:
         b2:17:7f:cb:7a:6d:fb:8f:3a:7f:fb:99:53:c1:e2:92:69:06:
         d9:fa:66:02:aa:87:8a:68:20:c0:21:2c:45:4c:f6:1f:fa:49:
         6b:b7:bc:73:f0:a0:05:3c:5c:6a:71:da:e2:c4:13:3e:12:96:
         6f:f0:d0:81:15:46:c8:8d:bf:07:dd:0f:a8:46:e8:a0:f3:e1:
         70:8a:d7:8e:d7:d6:c7:0b:8b:43:be:3e:f3:21:29:e8:9f:5b:
         70:1b:97:98:e1:61:7d:71:4c:61:06:18:fd:8d:79:1e:02:f0:
         b2:b4:8b:eb:a3:d5:3d:b0:62:be:5e:34:cf:27:50:89:49:8a:
         7d:e1:71:af:0b:4f:82:94:b8:74:8b:0c:93:a9:bb:a6:4f:1f:
         70:bc:18:d2:36:a6:02:ed
-----BEGIN CERTIFICATE-----
MIID0DCCAbgCBRYmiCUJMA0GCSqGSIb3DQEBCwUAMC0xCzAJBgNVBAYTAlVUMQ8w
DQYDVQQKDAZVVE9QSUExDTALBgNVBAMMBENTQ0EwHhcNMjEwNzIxMTU0ODUyWhcN
MjQwNzIwMTU0ODUyWjAaMQswCQYDVQQGEwJVVDELMAkGA1UEAwwCQjEwggEzMIHs
BgcqhkjOPQIBMIHgAgEBMCwGByqGSM49AQECIQCp+1fboe6pvD5mCpCdg41ybjv2
I9UmICggE0gdH25TdzBEBCB9Wgl1/CwwV+72dTBBev/n+4BVwSbcXGzpSktE8zC1
2QQgJtxcbOlKS0TzMLXZu9d8v5WEFilc9+HOa8zcGP+MB7YEQQSL0q65y35XyyxL
SC/8gbevud4n4eO9I8I6RFO9ms4yYlR++DXD2sT9l/hGGhRhHcnCd0UTLe2OVFwd
VMcvBGmXAiEAqftX26Huqbw+ZgqQnYONcYw5eqO1Yab3kB4OgpdIVqcCAQEDQgAE
WfjG4H94xXvMPU8xakrH0i8QjrnIG4XImIbNlODfy6EBXj6pwmY3fxRsqfBymNpG
zVLfp0VlLXwCImoMsAlfzjANBgkqhkiG9w0BAQsFAAOCAgEAuXXYxOby2ou/2Cl/
YSCE9jWirBmzrSvS7E4Hw5PAvRqo1Jnl7bWcCLLnpXTaOoOdMVOjTKB5F3bjLOxr
ucY8AHYztULuEktGIn/S8v/IHaXUdmSTtBvvnk9iUMWtalQZjhPzDrXwilcPgrXN
C8+t7VJXYOaQLC/J5aJ5AoZgwxdVO6XrkCiuFhkKKPy9bPDv2wG0hoOEkxUGoGT2
kWpOCNipg7/oDabIybCcKTPkm8H5dkexJwKcuCcQKP4nKUEfghTdHKeBHLBJ4pqz
KkG5tEZYcmydFLCwH3z6Cyjsgb2yX6VETqPrseqBFvY8xbG9EDcFGaaQ3C43T7ne
CAT8zM3K6gFRH/reG/QXzJcN9weea4muGfvrgWofboQKZ2zx75o1/x25eS4Ueuu7
uysNMqLQoLL8Pb+czOkEhEubkO7y7szrrTCjo58B2Sr8gJkN0txff4T+WYKJ36Q4
Di0Z6Br5Vv1uZYlnshd/y3pt+486f/uZU8HikmkG2fpmAqqHimggwCEsRUz2H/pJ
a7e8c/CgBTxcanHa4sQTPhKWb/DQgRVGyI2/B90PqEbooPPhcIrXjtfWxwuLQ74+
8yEp6J9bcBuXmOFhfXFMYQYY/Y15HgLwsrSL66PVPbBivl40zydQiUmKfeFxrwtP
gpS4dIsMk6m7pk8fcLwY0jamAu0=
-----END CERTIFICATE-----
