Certificate:
    Data:
        Version: 1 (0x0)
        Serial Number: 95135737098 (0x162688250a)
        Signature Algorithm: sha256WithRSAEncryption
        Issuer: C=UT, O=UTOPIA, CN=CSCA
        Validity
            Not Before: Jul 21 15:49:07 2021 GMT
            Not After : Jul 20 15:49:07 2024 GMT
        Subject: C=UT, CN=B2
        Subject Public Key Info:
            Public Key Algorithm: id-ecPublicKey
                Public-Key: (224 bit)
                pub:
                    04:9d:54:5f:5d:ed:f7:e4:21:9b:54:29:8b:a6:e2:
                    28:bd:54:52:62:a3:46:a8:b6:06:fd:7c:a0:5a:4f:
                    2e:9b:27:86:44:26:d3:da:aa:a0:98:8a:29:f1:b0:
                    4f:e4:a2:02:d4:45:43:a3:44:df:b2:f3
                Field Type: prime-field
                Prime:
                    00:d7:c1:34:aa:26:43:66:86:2a:18:30:25:75:d1:
                    d7:87:b0:9f:07:57:97:da:89:f5:7e:c8:c0:ff
                A:   
                    68:a5:e6:2c:a9:ce:6c:1c:29:98:03:a6:c1:53:0b:
                    51:4e:18:2a:d8:b0:04:2a:59:ca:d2:9f:43
                B:   
                    25:80:f6:3c:cf:e4:41:38:87:07:13:b1:a9:23:69:
                    e3:3e:21:35:d2:66:db:b3:72:38:6c:40:0b
                Generator (uncompressed):
                    04:0d:90:29:ad:2c:7e:5c:f4:34:08:23:b2:a8:7d:
                    c6:8c:9e:4c:e3:17:4c:1e:6e:fd:ee:12:c0:7d:58:
                    aa:56:f7:72:c0:72:6f:24:c6:b8:9e:4e:cd:ac:24:
                    35:4b:9e:99:ca:a3:f6:d3:76:14:02:cd
                Order: 
                    00:d7:c1:34:aa:26:43:66:86:2a:18:30:25:75:d0:
                    fb:98:d1:16:bc:4b:6d:de:bc:a3:a5:a7:93:9f
                Cofactor:  1 (0x1)
    Signature Algorithm: sha256WithRSAEncryption
         70:28:bb:e0:bb:7b:67:32:bd:97:65:17:73:51:70:98:28:69:
         0e:7e:8f:8b:02:69:79:7e:a0:cd:2b:da:ae:83:4c:15:8f:de:
         f7:c8:04:a5:98:63:8b:0d:42:2b:6e:cf:8a:0a:2f:00:5c:94:
         80:a4:f1:c0:35:f9:99:ef:15:88:83:6f:2e:a2:a4:ec:be:a8:
         c9:74:0f:f6:6b:22:58:f5:a0:72:29:02:b1:1c:ff:62:80:6b:
         5a:6e:8c:26:97:b6:83:f2:cc:0a:5c:c8:ad:a0:59:d2:25:5c:
         3e:d3:45:20:23:6b:31:9b:08:97:cb:48:f3:29:4a:a4:cb:65:
         e5:56:be:9a:62:e8:dd:d0:39:38:8e:81:b2:0f:31:ac:91:49:
         fd:72:5d:6d:6c:77:0f:be:70:53:97:f9:4e:9f:45:c7:2a:75:
         65:5e:e8:27:55:0b:5b:10:d6:d3:31:bd:9e:2c:63:38:5d:53:
         70:00:8d:e4:55:6d:e6:53:49:53:9e:c4:46:36:8d:5b:c1:ef:
         76:41:cc:1d:6d:c4:4b:d5:d7:6a:94:92:2a:23:2d:e3:54:34:
         50:7d:5c:c0:93:03:fe:21:a2:64:a9:60:ad:6b:62:b8:38:80:
         2a:1a:43:c7:1c:72:3b:26:9c:ae:fb:5f:8c:ba:a7:fb:98:45:
         3a:17:c4:95:0d:60:19:95:a8:c0:20:04:d2:b8:a5:5c:e7:96:
         a9:73:77:4a:24:ae:5b:ad:e0:44:dd:3d:5f:ae:ab:05:c7:2b:
         91:d8:4d:6e:07:14:43:c9:9f:6b:76:0c:37:85:0d:94:c9:67:
         13:cd:e5:0f:30:b7:81:ce:40:8d:96:ad:5e:62:9a:16:fd:d0:
         8d:c0:49:a5:b9:f7:a2:ad:8f:bd:01:27:f7:d0:cc:9e:e6:a6:
         14:62:bc:67:25:76:e3:d6:7a:46:df:af:f7:57:17:c6:ec:73:
         92:c2:65:6a:01:fa:bc:ad:b8:f3:e4:3d:75:66:a1:20:91:51:
         91:fa:a8:f3:80:33:05:da:8e:c1:7e:01:b9:d0:86:56:b0:71:
         59:91:c7:ea:af:f5:05:75:56:56:ee:53:0d:61:2e:81:50:49:
         6c:72:a9:89:bb:36:ae:0d:bc:ed:99:16:1c:fa:14:e2:bb:59:
         bb:d6:48:f3:73:52:70:55:8b:b8:67:bc:4e:30:ca:28:12:74:
         13:a1:ec:9f:2c:b3:ee:1a:09:ce:03:14:4c:65:0e:82:71:62:
         62:32:0e:28:2d:7c:05:44:92:03:1d:c5:aa:1e:35:21:cd:59:
         af:1e:3a:5d:0d:21:3b:d9:50:4d:a1:05:d0:be:cc:db:d2:93:
         25:59:05:88:b5:75:78:1a
-----BEGIN CERTIFICATE-----
MIIDsDCCAZgCBRYmiCUKMA0GCSqGSIb3DQEBCwUAMC0xCzAJBgNVBAYTAlVUMQ8w
DQYDVQQKDAZVVE9QSUExDTALBgNVBAMMBENTQ0EwHhcNMjEwNzIxMTU0OTA3WhcN
MjQwNzIwMTU0OTA3WjAaMQswCQYDVQQGEwJVVDELMAkGA1UEAwwCQjIwggETMIHU
BgcqhkjOPQIBMIHIAgEBMCgGByqGSM49AQECHQDXwTSqJkNmhioYMCV10deHsJ8H
V5faifV+yMD/MDwEHGil5iypzmwcKZgDpsFTC1FOGCrYsAQqWcrSn0MEHCWA9jzP
5EE4hwcTsakjaeM+ITXSZtuzcjhsQAsEOQQNkCmtLH5c9DQII7KofcaMnkzjF0we
bv3uEsB9WKpW93LAcm8kxrieTs2sJDVLnpnKo/bTdhQCzQIdANfBNKomQ2aGKhgw
JXXQ+5jRFrxLbd68o6Wnk58CAQEDOgAEnVRfXe335CGbVCmLpuIovVRSYqNGqLYG
/XygWk8umyeGRCbT2qqgmIop8bBP5KIC1EVDo0TfsvMwDQYJKoZIhvcNAQELBQAD
ggIBAHAou+C7e2cyvZdlF3NRcJgoaQ5+j4sCaXl+oM0r2q6DTBWP3vfIBKWYY4sN
Qituz4oKLwBclICk8cA1+ZnvFYiDby6ipOy+qMl0D/ZrIlj1oHIpArEc/2KAa1pu
jCaXtoPyzApcyK2gWdIlXD7TRSAjazGbCJfLSPMpSqTLZeVWvppi6N3QOTiOgbIP
MayRSf1yXW1sdw++cFOX+U6fRccqdWVe6CdVC1sQ1tMxvZ4sYzhdU3AAjeRVbeZT
SVOexEY2jVvB73ZBzB1txEvV12qUkiojLeNUNFB9XMCTA/4homSpYK1rYrg4gCoa
Q8cccjsmnK77X4y6p/uYRToXxJUNYBmVqMAgBNK4pVznlqlzd0okrlut4ETdPV+u
qwXHK5HYTW4HFEPJn2t2DDeFDZTJZxPN5Q8wt4HOQI2WrV5imhb90I3ASaW596Kt
j70BJ/fQzJ7mphRivGclduPWekbfr/dXF8bsc5LCZWoB+rytuPPkPXVmoSCRUZH6
qPOAMwXajsF+AbnQhlawcVmRx+qv9QV1VlbuUw1hLoFQSWxyqYm7Nq4NvO2ZFhz6
FOK7WbvWSPNzUnBVi7hnvE4wyigSdBOh7J8ss+4aCc4DFExlDoJxYmIyDigtfAVE
kgMdxaoeNSHNWa8eOl0NITvZUE2hBdC+zNvSkyVZBYi1dXga
-----END CERTIFICATE-----
