Certificate:
    Data:
        Version: 3 (0x2)
        Serial Number: 95135737096 (0x1626882508)
        Signature Algorithm: sha256WithRSAEncryption
        Issuer: C=UT, O=UTOPIA, CN=CSCA
        Validity
            Not Before: Jul 21 15:48:36 2021 GMT
            Not After : Jul 21 15:48:36 2031 GMT
        Subject: C=UT, O=UTOPIA, CN=CSCA
        Subject Public Key Info:
            Public Key Algorithm: rsaEncryption
                RSA Public-Key: (4096 bit)
                Modulus:
                    00:db:dd:f0:32:65:b7:f4:81:81:52:b6:0b:cb:2c:
                    4d:68:75:40:56:3a:2e:82:9a:24:b7:72:93:98:6b:
                    8f:92:1e:21:6c:27:d1:f5:cf:ff:f4:8f:2d:d6:0a:
                    ef:47:5b:6a:40:fd:66:e1:43:3d:f4:61:d6:33:dd:
                    cd:ed:be:7d:22:9b:a6:99:1f:27:be:89:2b:95:95:
                    86:c5:c7:cb:a1:48:e3:56:ba:69:20:fd:e2:b8:eb:
                    a8:e4:8d:0f:27:43:61:b2:11:78:11:b8:e2:5d:af:
                    e2:55:1b:f4:cf:2c:0c:de:e1:42:a8:93:1e:27:a9:
                    bf:3f:b9:1b:7b:eb:fa:98:57:eb:b6:a1:18:3e:54:
                    81:65:03:c6:9f:d6:2e:e8:f7:7b:06:d8:6b:6b:f8:
                    d3:bc:b9:91:24:6b:70:e6:b8:c5:26:12:47:68:f7:
                    c9:ce:12:11:22:0e:f8:e4:90:55:c3:7a:ca:1d:39:
                    0a:d8:d0:55:ee:23:59:aa:e9:32:f0:c8:bb:e2:b8:
                    d6:a7:cb:8c:66:ed:db:bc:42:9b:41:25:e4:8e:49:
                    f2:eb:3f:5e:d1:42:c5:8a:6f:c3:70:c2:fe:49:d1:
                    f3:76:b1:10:d0:b8:28:bf:36:6b:13:3e:c1:0a:52:
                    2e:1d:a8:1d:64:11:b1:81:ce:df:ac:06:13:15:2c:
                    f8:f4:50:07:a4:57:0d:cd:7a:9a:27:55:ff:ab:7a:
                    93:62:25:9c:b9:86:c5:4e:e7:31:e8:3e:2c:69:fe:
                    91:a3:f1:89:dd:f7:3d:ad:87:76:98:92:07:a5:1a:
                    8f:2b:84:f6:f4:0c:95:3b:f6:56:1e:3c:d5:83:bf:
                    3d:f5:40:8a:58:00:cc:f6:53:11:2b:c2:d6:cb:a2:
                    d3:c7:d3:1e:15:fd:cf:4a:8d:33:cd:73:36:95:fb:
                    4e:94:f0:be:17:c0:39:aa:2c:73:63:7b:d8:2f:95:
                    0d:9b:c0:da:3f:1d:44:04:f1:41:6b:94:34:a0:f7:
                    be:c0:e6:33:c4:a9:ab:80:d4:b1:d7:f1:cc:34:c2:
                    9c:43:78:3e:54:7a:4f:09:e2:6f:d8:6c:28:a3:a8:
                    8f:3f:bc:ed:30:8a:99:29:6d:dc:de:7d:23:25:17:
                    33:7b:1b:b4:c9:7e:e4:83:1f:0f:0a:e2:de:02:04:
                    4a:01:07:7b:e9:fa:06:c7:2f:04:9d:79:97:2a:09:
                    6c:2d:a4:43:e1:01:33:53:36:2f:3f:e8:c2:d0:23:
                    62:ed:17:52:3a:56:8e:d1:28:3a:c5:5b:df:36:d9:
                    07:1f:20:32:4c:77:ab:0f:1f:7b:68:ac:fb:fb:2c:
                    93:00:08:5b:dc:f4:6d:62:a9:66:2d:4f:0a:cd:30:
                    2b:3a:51
                Exponent: 65537 (0x10001)
        X509v3 extensions:
            X509v3 Key Usage: critical
                Certificate Sign, CRL Sign
            X509v3 Basic Constraints: critical
                CA:TRUE, pathlen:0
            X509v3 Subject Key Identifier: 
                08:49:45:F0:F5:79:88:D4:92:AF:4B:84:2A:6F:12:16:31:63:BE:16
            X509v3 Authority Key Identifier: 
                keyid:08:49:45:F0:F5:79:88:D4:92:AF:4B:84:2A:6F:12:16:31:63:BE:16

            X509v3 Subject Alternative Name: 
                email:csca@utopia.org, DirName:/L=UTO
            X509v3 Issuer Alternative Name: 
                email:csca@utopia.org, DirName:/L=UTO
            X509v3 CRL Distribution Points: 

                Full Name:
                  URI:https://crl.utopia.org/current.crl

                Full Name:
                  URI:http://crl.utopia.org/current.crl

            X509v3 Private Key Usage Period: 
                Not Before: Jul 21 00:00:00 2021 GMT, Not After: Jul 21 00:00:00 2023 GMT
    Signature Algorithm: sha256WithRSAEncryption
         d6:15:a6:ca:63:f8:b1:08:02:8f:b4:7d:bd:d0:43:1e:df:40:
         12:42:48:11:f8:34:c0:08:25:a9:11:19:5e:8c:8f:a7:a1:fa:
         70:61:10:60:c6:5c:da:85:76:eb:dd:19:86:16:e8:86:54:19:
         03:f5:e0:a1:70:e4:00:b4:d4:f3:16:0c:d8:6a:01:69:ed:79:
         03:90:19:05:3c:f5:af:f8:fd:fe:dd:7d:e2:f9:fd:0d:bb:0e:
         d9:f6:08:37:46:1f:66:c6:96:81:a8:85:f4:70:0f:d6:19:14:
         c7:68:71:9b:12:aa:c1:92:4b:4a:d6:ea:ac:a0:fb:60:08:7f:
         15:2e:04:94:5b:7b:1f:ce:90:89:8e:1c:03:30:e7:04:20:82:
         53:a5:f0:4e:e1:9d:73:3d:d3:e6:c2:4b:da:ee:9c:d7:86:3d:
         e5:1e:2d:7f:a3:d5:3d:f8:3b:17:cb:e1:1f:8a:91:f9:d9:1c:
         d0:09:8d:00:92:02:fe:f3:30:29:71:ef:63:a5:57:9a:a5:c0:
         e3:04:24:0d:31:d4:e3:48:af:64:5c:c1:71:53:f4:63:ff:3e:
         6b:39:13:99:35:42:0f:08:15:bb:96:1e:41:95:be:14:1c:4f:
         bc:dc:da:53:c9:d3:78:45:46:fe:bc:f3:10:77:a0:46:ba:96:
         10:1a:ec:3b:1e:29:cb:06:60:71:d0:40:d3:99:c2:8f:16:fa:
         83:46:a7:34:62:9d:09:f5:72:a4:d0:78:71:4d:1d:dc:82:43:
         78:b1:bb:dd:c3:18:26:ec:19:83:64:64:02:08:00:0d:4b:6c:
         71:41:56:56:7c:da:95:ee:00:3b:17:8b:f7:10:c9:99:7f:81:
         c9:05:a3:e0:47:1a:37:b3:b0:b1:6c:72:a2:c5:d1:5f:19:d5:
         ba:d9:be:b9:68:1d:70:4e:72:1b:9c:80:cc:1f:70:fd:40:71:
         de:84:b8:e6:7c:6a:06:7b:3f:7b:38:7e:da:1f:23:b7:6d:cc:
         1d:3c:12:16:c7:f5:14:6a:6a:19:cd:9b:1d:73:e9:4d:54:c0:
         6e:bc:83:db:b2:1f:6c:d5:6e:1e:8b:fc:96:d3:46:3e:84:f0:
         ce:49:cf:7c:01:73:9c:f7:09:8c:39:51:09:ce:92:51:07:d4:
         1b:84:44:47:74:81:c0:72:17:0e:aa:e3:43:53:56:9d:5e:c4:
         d1:e0:12:61:38:f9:33:9b:04:bc:a5:aa:41:dc:59:2f:de:c4:
         33:04:d6:72:2b:d7:e6:eb:83:fc:6b:c2:88:b5:e1:8e:26:73:
         3b:f1:38:81:fc:8c:61:6a:79:97:55:42:3e:ee:bc:eb:20:fc:
         8f:83:41:1c:6c:06:86:93
-----BEGIN CERTIFICATE-----
MIIGKjCCBBKgAwIBAgIFFiaIJQgwDQYJKoZIhvcNAQELBQAwLTELMAkGA1UEBhMC
VVQxDzANBgNVBAoMBlVUT1BJQTENMAsGA1UEAwwEQ1NDQTAeFw0yMTA3MjExNTQ4
MzZaFw0zMTA3MjExNTQ4MzZaMC0xCzAJBgNVBAYTAlVUMQ8wDQYDVQQKDAZVVE9Q
SUExDTALBgNVBAMMBENTQ0EwggIiMA0GCSqGSIb3DQEBAQUAA4ICDwAwggIKAoIC
AQDb3fAyZbf0gYFStgvLLE1odUBWOi6CmiS3cpOYa4+SHiFsJ9H1z//0jy3WCu9H
W2pA/WbhQz30YdYz3c3tvn0im6aZHye+iSuVlYbFx8uhSONWumkg/eK466jkjQ8n
Q2GyEXgRuOJdr+JVG/TPLAze4UKokx4nqb8/uRt76/qYV+u2oRg+VIFlA8af1i7o
93sG2Gtr+NO8uZEka3DmuMUmEkdo98nOEhEiDvjkkFXDesodOQrY0FXuI1mq6TLw
yLviuNany4xm7du8QptBJeSOSfLrP17RQsWKb8Nwwv5J0fN2sRDQuCi/NmsTPsEK
Ui4dqB1kEbGBzt+sBhMVLPj0UAekVw3NeponVf+repNiJZy5hsVO5zHoPixp/pGj
8Ynd9z2th3aYkgelGo8rhPb0DJU79lYePNWDvz31QIpYAMz2UxErwtbLotPH0x4V
/c9KjTPNczaV+06U8L4XwDmqLHNje9gvlQ2bwNo/HUQE8UFrlDSg977A5jPEqauA
1LHX8cw0wpxDeD5Uek8J4m/YbCijqI8/vO0wipkpbdzefSMlFzN7G7TJfuSDHw8K
4t4CBEoBB3vp+gbHLwSdeZcqCWwtpEPhATNTNi8/6MLQI2LtF1I6Vo7RKDrFW982
2QcfIDJMd6sPH3torPv7LJMACFvc9G1iqWYtTwrNMCs6UQIDAQABo4IBTzCCAUsw
DgYDVR0PAQH/BAQDAgEGMBIGA1UdEwEB/wQIMAYBAf8CAQAwHQYDVR0OBBYEFAhJ
RfD1eYjUkq9LhCpvEhYxY74WMB8GA1UdIwQYMBaAFAhJRfD1eYjUkq9LhCpvEhYx
Y74WMCwGA1UdEQQlMCOBD2NzY2FAdXRvcGlhLm9yZ6QQMA4xDDAKBgNVBAcMA1VU
TzAsBgNVHRIEJTAjgQ9jc2NhQHV0b3BpYS5vcmekEDAOMQwwCgYDVQQHDANVVE8w
XAYDVR0fBFUwUzAooCagJIYiaHR0cHM6Ly9jcmwudXRvcGlhLm9yZy9jdXJyZW50
LmNybDAnoCWgI4YhaHR0cDovL2NybC51dG9waWEub3JnL2N1cnJlbnQuY3JsMCsG
A1UdEAQkMCKADzIwMjEwNzIxMDAwMDAwWoEPMjAyMzA3MjEwMDAwMDBaMA0GCSqG
SIb3DQEBCwUAA4ICAQDWFabKY/ixCAKPtH290EMe30ASQkgR+DTACCWpERlejI+n
ofpwYRBgxlzahXbr3RmGFuiGVBkD9eChcOQAtNTzFgzYagFp7XkDkBkFPPWv+P3+
3X3i+f0Nuw7Z9gg3Rh9mxpaBqIX0cA/WGRTHaHGbEqrBkktK1uqsoPtgCH8VLgSU
W3sfzpCJjhwDMOcEIIJTpfBO4Z1zPdPmwkva7pzXhj3lHi1/o9U9+DsXy+EfipH5
2RzQCY0AkgL+8zApce9jpVeapcDjBCQNMdTjSK9kXMFxU/Rj/z5rOROZNUIPCBW7
lh5Blb4UHE+83NpTydN4RUb+vPMQd6BGupYQGuw7HinLBmBx0EDTmcKPFvqDRqc0
Yp0J9XKk0HhxTR3cgkN4sbvdwxgm7BmDZGQCCAANS2xxQVZWfNqV7gA7F4v3EMmZ
f4HJBaPgRxo3s7CxbHKixdFfGdW62b65aB1wTnIbnIDMH3D9QHHehLjmfGoGez97
OH7aHyO3bcwdPBIWx/UUamoZzZsdc+lNVMBuvIPbsh9s1W4ei/yW00Y+hPDOSc98
AXOc9wmMOVEJzpJRB9QbhERHdIHAchcOquNDU1adXsTR4BJhOPkzmwS8papB3Fkv
3sQzBNZyK9fm64P8a8KIteGOJnM78TiB/IxhanmXVUI+7rzrIPyPg0EcbAaGkw==
-----END CERTIFICATE-----
