Certificate:
    Data:
        Version: 3 (0x2)
        Serial Number: 3 (0x3)
    Signature Algorithm: sha256WithRSAEncryption
        Issuer: C=UT, O=UTOPIA, CN=CSCA1
        Validity
            Not Before: Oct 20 12:10:34 2021 GMT
            Not After : Oct 19 12:10:34 2024 GMT
        Subject: C=UT, CN=A2
        Subject Public Key Info:
            Public Key Algorithm: id-ecPublicKey
                Public-Key: (256 bit)
                pub: 
                    04:75:6a:c2:5c:ff:47:77:70:24:79:ae:f4:81:18:
                    23:32:4d:b6:32:20:be:81:63:06:17:6b:d7:72:69:
                    70:80:2a:94:45:ba:d1:9e:11:ea:46:51:3b:53:d9:
                    32:11:16:0d:48:0c:ec:26:39:b4:9c:b4:47:cf:ef:
                    e4:5e:3c:92:74
                Field Type: prime-field
                Prime:
                    00:a9:fb:57:db:a1:ee:a9:bc:3e:66:0a:90:9d:83:
                    8d:72:6e:3b:f6:23:d5:26:20:28:20:13:48:1d:1f:
                    6e:53:77
                A:   
                    7d:5a:09:75:fc:2c:30:57:ee:f6:75:30:41:7a:ff:
                    e7:fb:80:55:c1:26:dc:5c:6c:e9:4a:4b:44:f3:30:
                    b5:d9
                B:   
                    26:dc:5c:6c:e9:4a:4b:44:f3:30:b5:d9:bb:d7:7c:
                    bf:95:84:16:29:5c:f7:e1:ce:6b:cc:dc:18:ff:8c:
                    07:b6
                Generator (uncompressed):
                    04:8b:d2:ae:b9:cb:7e:57:cb:2c:4b:48:2f:fc:81:
                    b7:af:b9:de:27:e1:e3:bd:23:c2:3a:44:53:bd:9a:
                    ce:32:62:54:7e:f8:35:c3:da:c4:fd:97:f8:46:1a:
                    14:61:1d:c9:c2:77:45:13:2d:ed:8e:54:5c:1d:54:
                    c7:2f:04:69:97
                Order: 
                    00:a9:fb:57:db:a1:ee:a9:bc:3e:66:0a:90:9d:83:
                    8d:71:8c:39:7a:a3:b5:61:a6:f7:90:1e:0e:82:97:
                    48:56:a7
                Cofactor:  1 (0x1)
        X509v3 extensions:
            X509v3 Authority Key Identifier: 
                keyid:0A:86:11:82:3B:E8:77:33:38:08:32:C1:E5:B4:9D:40:C1:17:C8:12

            X509v3 Extended Key Usage: critical
                2.23.136.1.1.14.2
    Signature Algorithm: sha256WithRSAEncryption
         19:0c:fa:68:20:60:95:67:42:a1:e1:a5:90:b7:ae:3c:4e:f6:
         af:e9:f2:5b:c9:83:9c:86:47:fb:93:b7:b9:d0:02:a8:7a:ea:
         a2:8c:85:20:45:e6:6f:1a:22:22:dc:e2:ee:8d:d8:9b:51:00:
         96:05:49:5e:8b:ed:03:1c:9e:ce:e6:36:04:5c:c2:cc:18:4b:
         c6:40:82:0a:53:ed:d6:b6:4a:26:1d:5e:df:7c:34:97:86:9d:
         71:8a:90:cd:15:4d:02:a3:6f:cb:d5:75:fa:96:d0:3f:1d:48:
         47:69:22:66:e6:17:2a:d6:6b:73:6f:ae:bb:b9:2e:34:ac:5d:
         f0:f1:71:5e:49:f9:e2:1a:e9:aa:a1:2f:a3:6c:8e:63:90:9c:
         57:22:7c:4a:22:29:2c:82:2a:c3:78:a9:9e:d8:df:29:be:97:
         f8:71:a9:8a:9b:43:6f:6c:b4:8d:08:1b:b5:b3:69:7a:3e:91:
         d8:2f:f1:4a:02:09:63:ea:15:80:24:03:fa:c2:7a:55:df:52:
         fd:5f:da:13:fc:f5:70:9b:82:4c:88:95:3d:3e:15:f5:33:f4:
         5d:12:bc:da:b7:36:99:ee:40:bc:13:7d:b6:23:77:1c:c9:d3:
         ad:f7:02:39:6c:af:d5:84:57:bb:f7:45:d9:01:f0:94:14:02:
         62:b6:c9:52:39:bb:d3:be:fe:09:68:4c:39:12:76:25:7b:1c:
         9a:b6:c5:03:eb:a2:d9:00:05:16:17:a8:1e:6b:92:14:1a:fb:
         6b:99:2f:4a:45:63:62:28:24:f8:a4:75:2e:8b:a8:7b:20:8d:
         43:bb:8f:4a:9d:8f:b4:32:c0:07:95:05:26:44:37:42:d8:86:
         ad:5a:f4:eb:1d:4c:7c:7f:72:24:ed:12:13:e7:16:b7:51:a4:
         25:b0:a8:aa:e0:4d:23:df:23:1e:ca:43:66:fa:c1:74:68:02:
         f1:94:59:de:12:67:3b:30:94:7f:d8:5a:40:aa:14:0d:73:7b:
         4f:e5:8d:f1:96:ef:67:b9:61:ca:9f:e0:de:d4:55:0d:5a:6e:
         a0:a1:6d:be:22:5b:12:7c:40:9d:bf:04:88:7f:08:94:a9:38:
         50:55:33:90:5b:20:7a:a6:69:e4:78:97:3c:cf:5f:cf:d0:55:
         25:be:bf:6f:a4:1f:62:84:0b:21:69:c2:3d:9c:18:5a:16:de:
         bd:1f:1b:c4:9d:4f:e0:30:8b:6f:8a:a0:b5:9d:ee:b9:1e:b3:
         f0:69:db:7b:a4:fd:46:23:a4:2e:fa:d8:58:a8:38:1b:85:89:
         4f:43:dc:1f:30:1a:c9:36:38:2c:4f:56:20:23:46:df:fd:f1:
         4e:bb:f2:a7:17:9d:94:3d
-----BEGIN CERTIFICATE-----
MIIEDjCCAfagAwIBAgIBAzANBgkqhkiG9w0BAQsFADAuMQswCQYDVQQGEwJVVDEP
MA0GA1UECgwGVVRPUElBMQ4wDAYDVQQDDAVDU0NBMTAeFw0yMTEwMjAxMjEwMzRa
Fw0yNDEwMTkxMjEwMzRaMBoxCzAJBgNVBAYTAlVUMQswCQYDVQQDDAJBMjCCATMw
gewGByqGSM49AgEwgeACAQEwLAYHKoZIzj0BAQIhAKn7V9uh7qm8PmYKkJ2DjXJu
O/Yj1SYgKCATSB0fblN3MEQEIH1aCXX8LDBX7vZ1MEF6/+f7gFXBJtxcbOlKS0Tz
MLXZBCAm3Fxs6UpLRPMwtdm713y/lYQWKVz34c5rzNwY/4wHtgRBBIvSrrnLflfL
LEtIL/yBt6+53ifh470jwjpEU72azjJiVH74NcPaxP2X+EYaFGEdycJ3RRMt7Y5U
XB1Uxy8EaZcCIQCp+1fboe6pvD5mCpCdg41xjDl6o7VhpveQHg6Cl0hWpwIBAQNC
AAR1asJc/0d3cCR5rvSBGCMyTbYyIL6BYwYXa9dyaXCAKpRFutGeEepGUTtT2TIR
Fg1IDOwmObSctEfP7+RePJJ0ozowODAfBgNVHSMEGDAWgBQKhhGCO+h3MzgIMsHl
tJ1AwRfIEjAVBgNVHSUBAf8ECzAJBgdngQgBAQ4CMA0GCSqGSIb3DQEBCwUAA4IC
AQAZDPpoIGCVZ0Kh4aWQt648Tvav6fJbyYOchkf7k7e50AKoeuqijIUgReZvGiIi
3OLujdibUQCWBUlei+0DHJ7O5jYEXMLMGEvGQIIKU+3WtkomHV7ffDSXhp1xipDN
FU0Co2/L1XX6ltA/HUhHaSJm5hcq1mtzb667uS40rF3w8XFeSfniGumqoS+jbI5j
kJxXInxKIiksgirDeKme2N8pvpf4camKm0NvbLSNCBu1s2l6PpHYL/FKAglj6hWA
JAP6wnpV31L9X9oT/PVwm4JMiJU9PhX1M/RdErzatzaZ7kC8E322I3ccydOt9wI5
bK/VhFe790XZAfCUFAJitslSObvTvv4JaEw5EnYlexyatsUD66LZAAUWF6gea5IU
GvtrmS9KRWNiKCT4pHUui6h7II1Du49KnY+0MsAHlQUmRDdC2IatWvTrHUx8f3Ik
7RIT5xa3UaQlsKiq4E0j3yMeykNm+sF0aALxlFneEmc7MJR/2FpAqhQNc3tP5Y3x
lu9nuWHKn+De1FUNWm6goW2+IlsSfECdvwSIfwiUqThQVTOQWyB6pmnkeJc8z1/P
0FUlvr9vpB9ihAshacI9nBhaFt69HxvEnU/gMItviqC1ne65HrPwadt7pP1GI6Qu
+thYqDgbhYlPQ9wfMBrJNjgsT1YgI0bf/fFOu/KnF52UPQ==
-----END CERTIFICATE-----
