Certificate:
    Data:
        Version: 3 (0x2)
        Serial Number: 4 (0x4)
    Signature Algorithm: sha256WithRSAEncryption
        Issuer: C=UT, O=UTOPIA, CN=CSCA1
        Validity
            Not Before: Oct 20 12:10:44 2021 GMT
            Not After : Oct 19 12:10:44 2024 GMT
        Subject: C=UT, CN=A3
        Subject Public Key Info:
            Public Key Algorithm: id-ecPublicKey
                Public-Key: (320 bit)
                pub: 
                    04:21:4a:57:95:17:27:9e:3e:f1:49:f5:7d:72:1b:
                    ad:49:89:23:11:78:98:c6:8d:00:5d:92:09:e4:e9:
                    04:ae:de:a9:a7:5a:82:b2:f5:29:c8:5a:4f:0e:a6:
                    96:e1:41:91:cd:39:d4:26:47:dd:f6:e0:a6:53:c5:
                    6b:68:54:9c:7b:bb:1a:da:c0:c1:48:fe:5d:4b:cd:
                    73:0a:f7:56:72:0c
                Field Type: prime-field
                Prime:
                    00:d3:5e:47:20:36:bc:4f:b7:e1:3c:78:5e:d2:01:
                    e0:65:f9:8f:cf:a6:f6:f4:0d:ef:4f:92:b9:ec:78:
                    93:ec:28:fc:d4:12:b1:f1:b3:2e:27
                A:   
                    3e:e3:0b:56:8f:ba:b0:f8:83:cc:eb:d4:6d:3f:3b:
                    b8:a2:a7:35:13:f5:eb:79:da:66:19:0e:b0:85:ff:
                    a9:f4:92:f3:75:a9:7d:86:0e:b4
                B:   
                    52:08:83:94:9d:fd:bc:42:d3:ad:19:86:40:68:8a:
                    6f:e1:3f:41:34:95:54:b4:9a:cc:31:dc:cd:88:45:
                    39:81:6f:5e:b4:ac:8f:b1:f1:a6
                Generator (uncompressed):
                    04:43:bd:7e:9a:fb:53:d8:b8:52:89:bc:c4:8e:e5:
                    bf:e6:f2:01:37:d1:0a:08:7e:b6:e7:87:1e:2a:10:
                    a5:99:c7:10:af:8d:0d:39:e2:06:11:14:fd:d0:55:
                    45:ec:1c:c8:ab:40:93:24:7f:77:27:5e:07:43:ff:
                    ed:11:71:82:ea:a9:c7:78:77:aa:ac:6a:c7:d3:52:
                    45:d1:69:2e:8e:e1
                Order: 
                    00:d3:5e:47:20:36:bc:4f:b7:e1:3c:78:5e:d2:01:
                    e0:65:f9:8f:cf:a5:b6:8f:12:a3:2d:48:2e:c7:ee:
                    86:58:e9:86:91:55:5b:44:c5:93:11
                Cofactor:  1 (0x1)
        X509v3 extensions:
            X509v3 Authority Key Identifier: 
                keyid:0A:86:11:82:3B:E8:77:33:38:08:32:C1:E5:B4:9D:40:C1:17:C8:12

            X509v3 Extended Key Usage: critical
                2.23.136.1.1.14.2
    Signature Algorithm: sha256WithRSAEncryption
         8a:ad:89:e4:55:aa:1a:91:11:de:72:6d:0a:8e:f9:66:1b:b0:
         26:ea:23:81:e4:34:ab:ac:aa:55:6c:85:e4:33:4a:4a:b6:27:
         57:30:dc:cf:e4:8c:56:82:52:69:ec:30:c0:4b:6b:4f:fb:62:
         88:38:1e:48:63:ad:c0:07:db:6e:21:a7:20:a5:1c:45:8b:1f:
         a6:2f:ce:5d:c7:4b:ed:82:d0:1a:fb:70:72:bf:1a:80:64:7b:
         ab:46:2b:44:50:bf:6f:09:bf:cc:5b:84:74:69:48:a0:fb:00:
         b2:79:40:9d:9c:ac:51:40:51:43:0c:c6:15:bf:1d:31:db:9d:
         a3:55:c5:b7:10:1a:f7:d5:bc:99:7a:07:17:87:69:c4:1c:14:
         f0:06:e1:fc:60:94:16:d1:7c:e2:f2:35:9e:41:59:b9:d6:36:
         56:f9:7c:bb:11:11:54:2c:c6:7c:db:98:a7:b1:3b:44:9f:c6:
         80:87:ae:22:60:bd:4c:27:f4:d3:f5:9b:e7:97:74:a0:51:56:
         da:ea:aa:b0:0b:19:5b:d1:c5:36:25:87:b0:77:1d:cf:dd:7c:
         2a:b2:26:df:aa:3a:70:df:b9:09:c7:70:d9:ec:79:1e:24:32:
         cd:cf:a8:5f:0f:d1:3e:51:60:8d:d6:a7:24:76:4a:df:3b:7e:
         89:f3:c9:f7:4e:a2:26:2c:f7:0d:fb:b6:2a:94:08:1e:f2:54:
         bc:ca:b0:1a:23:c5:6e:1e:65:d8:05:7f:02:36:3b:19:00:b2:
         23:4d:55:08:6e:62:3e:06:7c:a1:a4:41:06:60:f8:bd:21:20:
         a9:1f:3e:1e:1f:d3:f0:75:a7:1b:14:f2:e4:e3:51:1e:9d:2d:
         1f:67:d7:2c:3f:5e:14:a4:e3:14:01:ad:c7:79:5d:6c:53:79:
         70:83:21:20:03:44:dc:dd:03:f5:65:d9:26:2b:e0:06:68:7b:
         a9:1b:ee:33:af:34:54:87:ae:31:65:df:8d:73:a7:88:3a:c6:
         49:d7:e1:81:a6:1d:0e:45:ff:48:6a:b1:9e:81:49:ad:ce:dc:
         1e:d5:e6:b1:76:d1:e8:57:8e:9e:2e:e6:0c:9a:12:0e:73:df:
         f1:9a:49:95:20:62:9d:21:85:4a:06:76:b4:66:67:17:df:ec:
         93:52:e2:cb:61:65:26:ee:26:56:38:a2:0b:8f:66:da:32:77:
         77:af:6b:64:07:c7:fc:0d:bc:d1:cd:c9:28:52:56:2d:a3:ca:
         1d:bd:bc:94:97:e2:81:82:b5:79:bc:a6:75:f8:fe:34:76:0c:
         60:93:b7:42:5d:16:b6:31:ed:33:65:7d:ec:19:5d:4f:5c:de:
         e4:a0:9d:1b:83:3c:3b:60
-----BEGIN CERTIFICATE-----
MIIEUDCCAjigAwIBAgIBBDANBgkqhkiG9w0BAQsFADAuMQswCQYDVQQGEwJVVDEP
MA0GA1UECgwGVVRPUElBMQ4wDAYDVQQDDAVDU0NBMTAeFw0yMTEwMjAxMjEwNDRa
Fw0yNDEwMTkxMjEwNDRaMBoxCzAJBgNVBAYTAlVUMQswCQYDVQQDDAJBMzCCAXUw
ggEdBgcqhkjOPQIBMIIBEAIBATA0BgcqhkjOPQEBAikA015HIDa8T7fhPHhe0gHg
ZfmPz6b29A3vT5K57HiT7Cj81BKx8bMuJzBUBCg+4wtWj7qw+IPM69RtPzu4oqc1
E/XredpmGQ6whf+p9JLzdal9hg60BChSCIOUnf28QtOtGYZAaIpv4T9BNJVUtJrM
MdzNiEU5gW9etKyPsfGmBFEEQ71+mvtT2LhSibzEjuW/5vIBN9EKCH6254ceKhCl
mccQr40NOeIGERT90FVF7BzIq0CTJH93J14HQ//tEXGC6qnHeHeqrGrH01JF0Wku
juECKQDTXkcgNrxPt+E8eF7SAeBl+Y/PpbaPEqMtSC7H7oZY6YaRVVtExZMRAgEB
A1IABCFKV5UXJ54+8Un1fXIbrUmJIxF4mMaNAF2SCeTpBK7eqadagrL1KchaTw6m
luFBkc051CZH3fbgplPFa2hUnHu7GtrAwUj+XUvNcwr3VnIMozowODAfBgNVHSME
GDAWgBQKhhGCO+h3MzgIMsHltJ1AwRfIEjAVBgNVHSUBAf8ECzAJBgdngQgBAQ4C
MA0GCSqGSIb3DQEBCwUAA4ICAQCKrYnkVaoakRHecm0KjvlmG7Am6iOB5DSrrKpV
bIXkM0pKtidXMNzP5IxWglJp7DDAS2tP+2KIOB5IY63AB9tuIacgpRxFix+mL85d
x0vtgtAa+3ByvxqAZHurRitEUL9vCb/MW4R0aUig+wCyeUCdnKxRQFFDDMYVvx0x
252jVcW3EBr31byZegcXh2nEHBTwBuH8YJQW0Xzi8jWeQVm51jZW+Xy7ERFULMZ8
25insTtEn8aAh64iYL1MJ/TT9Zvnl3SgUVba6qqwCxlb0cU2JYewdx3P3Xwqsibf
qjpw37kJx3DZ7HkeJDLNz6hfD9E+UWCN1qckdkrfO36J88n3TqImLPcN+7YqlAge
8lS8yrAaI8VuHmXYBX8CNjsZALIjTVUIbmI+BnyhpEEGYPi9ISCpHz4eH9Pwdacb
FPLk41EenS0fZ9csP14UpOMUAa3HeV1sU3lwgyEgA0Tc3QP1ZdkmK+AGaHupG+4z
rzRUh64xZd+Nc6eIOsZJ1+GBph0ORf9IarGegUmtztwe1eaxdtHoV46eLuYMmhIO
c9/xmkmVIGKdIYVKBna0ZmcX3+yTUuLLYWUm7iZWOKILj2baMnd3r2tkB8f8DbzR
zckoUlYto8odvbyUl+KBgrV5vKZ1+P40dgxgk7dCXRa2Me0zZX3sGV1PXN7koJ0b
gzw7YA==
-----END CERTIFICATE-----
