Certificate:
    Data:
        Version: 3 (0x2)
        Serial Number: 5 (0x5)
    Signature Algorithm: sha256WithRSAEncryption
        Issuer: C=UT, O=UTOPIA, CN=CSCA1
        Validity
            Not Before: Oct 20 12:10:55 2021 GMT
            Not After : Oct 19 12:10:55 2024 GMT
        Subject: C=UT, CN=A4
        Subject Public Key Info:
            Public Key Algorithm: id-ecPublicKey
                Public-Key: (512 bit)
                pub: 
                    04:9c:c1:da:26:f4:f5:65:1a:88:00:9f:a8:40:5c:
                    01:b8:95:e2:bc:c3:cc:5d:66:8b:b3:6b:1f:8b:ac:
                    f6:15:99:72:f0:34:cb:4c:d8:0f:65:53:02:bd:30:
                    24:d2:ac:68:47:0d:40:d6:5e:b9:71:14:d4:22:f3:
                    fa:e7:33:18:db:72:39:a6:12:30:05:77:7a:b0:e5:
                    02:fa:05:1b:88:4a:36:90:c2:89:da:dd:92:94:b4:
                    8f:b5:60:11:3b:e0:ea:e4:eb:11:56:bc:a2:35:62:
                    82:f5:4f:da:0a:5b:00:06:8d:3b:a5:3f:94:15:2f:
                    42:8d:fe:a7:86:57:f2:d8:34
                Field Type: prime-field
                Prime:
                    00:aa:dd:9d:b8:db:e9:c4:8b:3f:d4:e6:ae:33:c9:
                    fc:07:cb:30:8d:b3:b3:c9:d2:0e:d6:63:9c:ca:70:
                    33:08:71:7d:4d:9b:00:9b:c6:68:42:ae:cd:a1:2a:
                    e6:a3:80:e6:28:81:ff:2f:2d:82:c6:85:28:aa:60:
                    56:58:3a:48:f3
                A:   
                    78:30:a3:31:8b:60:3b:89:e2:32:71:45:ac:23:4c:
                    c5:94:cb:dd:8d:3d:f9:16:10:a8:34:41:ca:ea:98:
                    63:bc:2d:ed:5d:5a:a8:25:3a:a1:0a:2e:f1:c9:8b:
                    9a:c8:b5:7f:11:17:a7:2b:f2:c7:b9:e7:c1:ac:4d:
                    77:fc:94:ca
                B:   
                    3d:f9:16:10:a8:34:41:ca:ea:98:63:bc:2d:ed:5d:
                    5a:a8:25:3a:a1:0a:2e:f1:c9:8b:9a:c8:b5:7f:11:
                    17:a7:2b:f2:c7:b9:e7:c1:ac:4d:77:fc:94:ca:dc:
                    08:3e:67:98:40:50:b7:5e:ba:e5:dd:28:09:bd:63:
                    80:16:f7:23
                Generator (uncompressed):
                    04:81:ae:e4:bd:d8:2e:d9:64:5a:21:32:2e:9c:4c:
                    6a:93:85:ed:9f:70:b5:d9:16:c1:b4:3b:62:ee:f4:
                    d0:09:8e:ff:3b:1f:78:e2:d0:d4:8d:50:d1:68:7b:
                    93:b9:7d:5f:7c:6d:50:47:40:6a:5e:68:8b:35:22:
                    09:bc:b9:f8:22:7d:de:38:5d:56:63:32:ec:c0:ea:
                    bf:a9:cf:78:22:fd:f2:09:f7:00:24:a5:7b:1a:a0:
                    00:c5:5b:88:1f:81:11:b2:dc:de:49:4a:5f:48:5e:
                    5b:ca:4b:d8:8a:27:63:ae:d1:ca:2b:2f:a8:f0:54:
                    06:78:cd:1e:0f:3a:d8:08:92
                Order: 
                    00:aa:dd:9d:b8:db:e9:c4:8b:3f:d4:e6:ae:33:c9:
                    fc:07:cb:30:8d:b3:b3:c9:d2:0e:d6:63:9c:ca:70:
                    33:08:70:55:3e:5c:41:4c:a9:26:19:41:86:61:19:
                    7f:ac:10:47:1d:b1:d3:81:08:5d:da:dd:b5:87:96:
                    82:9c:a9:00:69
                Cofactor:  1 (0x1)
        X509v3 extensions:
            X509v3 Authority Key Identifier: 
                keyid:0A:86:11:82:3B:E8:77:33:38:08:32:C1:E5:B4:9D:40:C1:17:C8:12

            X509v3 Extended Key Usage: critical
                2.23.136.1.1.14.2
    Signature Algorithm: sha256WithRSAEncryption
         1a:cd:a3:41:a7:7c:ec:59:12:31:ae:1f:e5:84:99:00:8d:d8:
         35:e6:d9:63:0c:58:54:9a:d1:6c:50:f1:80:43:f3:09:ac:09:
         43:66:85:b6:02:d0:ca:bc:08:06:97:a9:cb:a0:aa:cd:35:f4:
         e2:62:ac:3a:3a:00:4b:fa:ba:01:cc:09:c7:d7:32:92:59:5a:
         d6:9a:67:51:d9:c8:aa:ff:dc:17:f9:67:52:63:51:45:e7:36:
         e8:5b:42:cf:59:d3:ba:ec:88:b0:55:3e:8c:27:62:2c:55:c3:
         61:96:97:55:f2:70:5b:17:d6:8d:68:a4:bc:41:96:bc:07:22:
         d6:68:b5:ad:cd:cc:e8:63:d3:46:7f:fa:41:35:9d:aa:21:4d:
         37:42:a2:0b:ed:70:0b:01:46:e0:b4:6d:9f:06:9b:28:9b:c2:
         3f:0d:bd:1f:ff:06:0a:5b:36:54:05:eb:11:76:3d:f7:24:3e:
         e2:be:dd:99:33:52:72:54:dc:54:9f:de:de:d0:b9:13:69:f0:
         36:d8:49:8e:03:cf:e4:9a:45:9d:8d:5b:5a:bd:3f:a1:b8:a4:
         1b:c6:eb:a9:72:a3:72:23:71:07:e4:1f:89:02:b0:ff:eb:a7:
         04:4e:94:7c:7b:c7:d2:9c:9f:43:6a:14:03:ed:f5:e9:ab:85:
         d3:cd:d9:15:2a:ad:16:7a:78:c5:5b:1a:ae:3b:cc:4c:52:59:
         0a:27:c1:08:60:4f:b7:66:b2:45:32:c1:17:9c:47:1c:32:e0:
         a4:46:27:7e:5b:51:28:1f:14:2a:c6:52:db:7b:0b:76:c7:92:
         99:1c:ea:99:e6:61:c7:c7:f5:fa:c7:4b:f1:8d:e3:84:75:98:
         9f:bb:e3:ec:0f:a4:f3:84:91:26:79:c6:cd:e3:88:0b:b7:23:
         09:b3:88:b6:6e:c5:5c:1c:0d:74:b4:d8:a5:72:76:51:0e:af:
         6d:32:e1:bd:a5:ca:8f:0b:4b:c2:d6:d4:48:8d:9f:fd:4c:c8:
         dc:21:b1:50:39:80:86:e5:f3:5d:d3:fd:ea:05:cf:a7:6c:2c:
         29:bd:38:cd:4a:17:d9:c3:47:da:40:11:2c:eb:32:82:cd:1b:
         55:f3:48:80:e6:f4:f7:41:d5:96:9b:28:51:1c:4d:b8:e9:82:
         d0:fe:01:95:2a:39:6b:16:98:e7:cd:5f:eb:79:c9:94:ec:a3:
         e7:28:29:14:e6:d8:f1:c0:6c:73:76:66:e1:23:55:32:d8:b6:
         31:78:a9:5d:12:92:4e:ba:2a:c6:41:6c:07:cb:a6:d0:93:86:
         8f:06:f2:e7:e5:42:f9:92:94:04:ac:1f:4e:4e:d3:e7:a6:0b:
         fe:3e:89:8b:92:91:97:85
-----BEGIN CERTIFICATE-----
MIIFEzCCAvugAwIBAgIBBTANBgkqhkiG9w0BAQsFADAuMQswCQYDVQQGEwJVVDEP
MA0GA1UECgwGVVRPUElBMQ4wDAYDVQQDDAVDU0NBMTAeFw0yMTEwMjAxMjEwNTVa
Fw0yNDEwMTkxMjEwNTVaMBoxCzAJBgNVBAYTAlVUMQswCQYDVQQDDAJBNDCCAjgw
ggGvBgcqhkjOPQIBMIIBogIBATBMBgcqhkjOPQEBAkEAqt2duNvpxIs/1OauM8n8
B8swjbOzydIO1mOcynAzCHF9TZsAm8ZoQq7NoSrmo4DmKIH/Ly2CxoUoqmBWWDpI
8zCBhARAeDCjMYtgO4niMnFFrCNMxZTL3Y09+RYQqDRByuqYY7wt7V1aqCU6oQou
8cmLmsi1fxEXpyvyx7nnwaxNd/yUygRAPfkWEKg0QcrqmGO8Le1dWqglOqEKLvHJ
i5rItX8RF6cr8se558GsTXf8lMrcCD5nmEBQt1665d0oCb1jgBb3IwSBgQSBruS9
2C7ZZFohMi6cTGqThe2fcLXZFsG0O2Lu9NAJjv87H3ji0NSNUNFoe5O5fV98bVBH
QGpeaIs1Igm8ufgifd44XVZjMuzA6r+pz3gi/fIJ9wAkpXsaoADFW4gfgRGy3N5J
Sl9IXlvKS9iKJ2Ou0corL6jwVAZ4zR4POtgIkgJBAKrdnbjb6cSLP9TmrjPJ/AfL
MI2zs8nSDtZjnMpwMwhwVT5cQUypJhlBhmEZf6wQRx2x04EIXdrdtYeWgpypAGkC
AQEDgYIABJzB2ib09WUaiACfqEBcAbiV4rzDzF1mi7NrH4us9hWZcvA0y0zYD2VT
Ar0wJNKsaEcNQNZeuXEU1CLz+uczGNtyOaYSMAV3erDlAvoFG4hKNpDCidrdkpS0
j7VgETvg6uTrEVa8ojVigvVP2gpbAAaNO6U/lBUvQo3+p4ZX8tg0ozowODAfBgNV
HSMEGDAWgBQKhhGCO+h3MzgIMsHltJ1AwRfIEjAVBgNVHSUBAf8ECzAJBgdngQgB
AQ4CMA0GCSqGSIb3DQEBCwUAA4ICAQAazaNBp3zsWRIxrh/lhJkAjdg15tljDFhU
mtFsUPGAQ/MJrAlDZoW2AtDKvAgGl6nLoKrNNfTiYqw6OgBL+roBzAnH1zKSWVrW
mmdR2ciq/9wX+WdSY1FF5zboW0LPWdO67IiwVT6MJ2IsVcNhlpdV8nBbF9aNaKS8
QZa8ByLWaLWtzczoY9NGf/pBNZ2qIU03QqIL7XALAUbgtG2fBpsom8I/Db0f/wYK
WzZUBesRdj33JD7ivt2ZM1JyVNxUn97e0LkTafA22EmOA8/kmkWdjVtavT+huKQb
xuupcqNyI3EH5B+JArD/66cETpR8e8fSnJ9DahQD7fXpq4XTzdkVKq0WenjFWxqu
O8xMUlkKJ8EIYE+3ZrJFMsEXnEccMuCkRid+W1EoHxQqxlLbewt2x5KZHOqZ5mHH
x/X6x0vxjeOEdZifu+PsD6TzhJEmecbN44gLtyMJs4i2bsVcHA10tNilcnZRDq9t
MuG9pcqPC0vC1tRIjZ/9TMjcIbFQOYCG5fNd0/3qBc+nbCwpvTjNShfZw0faQBEs
6zKCzRtV80iA5vT3QdWWmyhRHE246YLQ/gGVKjlrFpjnzV/recmU7KPnKCkU5tjx
wGxzdmbhI1Uy2LYxeKldEpJOuirGQWwHy6bQk4aPBvLn5UL5kpQErB9OTtPnpgv+
PomLkpGXhQ==
-----END CERTIFICATE-----
