Certificate:
    Data:
        Version: 3 (0x2)
        Serial Number: 2 (0x2)
    Signature Algorithm: sha256WithRSAEncryption
        Issuer: C=UT, O=UTOPIA, CN=CSCA1
        Validity
            Not Before: Oct 20 12:10:18 2021 GMT
            Not After : Oct 19 12:10:18 2024 GMT
        Subject: C=UT, CN=A1
        Subject Public Key Info:
            Public Key Algorithm: id-ecPublicKey
                Public-Key: (224 bit)
                pub: 
                    04:c1:5a:27:4c:49:ae:79:e3:9e:03:1a:1e:e3:f8:
                    89:16:7e:cc:0c:af:7d:ef:8f:04:22:34:e3:44:a3:
                    e2:d1:0b:7f:b2:2f:97:43:71:f7:42:7c:34:2a:ac:
                    c7:40:0b:c3:df:47:ff:1c:31:54:4c:27
                Field Type: prime-field
                Prime:
                    00:d7:c1:34:aa:26:43:66:86:2a:18:30:25:75:d1:
                    d7:87:b0:9f:07:57:97:da:89:f5:7e:c8:c0:ff
                A:   
                    68:a5:e6:2c:a9:ce:6c:1c:29:98:03:a6:c1:53:0b:
                    51:4e:18:2a:d8:b0:04:2a:59:ca:d2:9f:43
                B:   
                    25:80:f6:3c:cf:e4:41:38:87:07:13:b1:a9:23:69:
                    e3:3e:21:35:d2:66:db:b3:72:38:6c:40:0b
                Generator (uncompressed):
                    04:0d:90:29:ad:2c:7e:5c:f4:34:08:23:b2:a8:7d:
                    c6:8c:9e:4c:e3:17:4c:1e:6e:fd:ee:12:c0:7d:58:
                    aa:56:f7:72:c0:72:6f:24:c6:b8:9e:4e:cd:ac:24:
                    35:4b:9e:99:ca:a3:f6:d3:76:14:02:cd
                Order: 
                    00:d7:c1:34:aa:26:43:66:86:2a:18:30:25:75:d0:
                    fb:98:d1:16:bc:4b:6d:de:bc:a3:a5:a7:93:9f
                Cofactor:  1 (0x1)
        X509v3 extensions:
            X509v3 Authority Key Identifier: 
                keyid:0A:86:11:82:3B:E8:77:33:38:08:32:C1:E5:B4:9D:40:C1:17:C8:12

            X509v3 Extended Key Usage: critical
                2.23.136.1.1.14.2
    Signature Algorithm: sha256WithRSAEncryption
         7b:e0:85:0b:80:84:3e:31:b1:f6:f0:e2:fb:35:8a:0a:1a:3a:
         42:dc:06:23:f3:15:c1:6a:a6:82:84:52:52:00:60:32:bb:40:
         ab:fb:58:79:6c:fc:b4:3e:a4:67:32:d6:f0:ce:4f:c4:62:d1:
         53:27:78:a0:1b:76:5b:37:4d:a8:71:89:ef:6c:38:34:37:94:
         9b:7d:c3:1f:8d:20:6e:2b:d2:b5:d7:07:21:e6:31:c4:d0:aa:
         d5:61:62:37:5a:00:7e:aa:62:f9:77:73:7d:28:11:49:2b:98:
         63:ef:2c:66:81:b1:83:60:3b:c9:d3:08:18:de:02:b9:61:83:
         3a:9d:53:fc:15:62:7a:ca:4f:91:95:85:a3:d3:fc:c1:d7:ad:
         69:5d:e6:aa:32:ee:ee:88:83:21:29:1f:c5:08:46:44:53:29:
         38:9a:f0:fd:b9:71:86:5e:59:81:14:a1:66:bb:e9:cf:c9:f3:
         31:98:ad:c4:fa:26:a4:92:c2:2f:4a:c7:0a:87:cb:c0:f4:4a:
         bc:51:78:5b:90:d0:b7:49:f7:31:65:6b:5e:31:ed:2c:50:b8:
         85:a3:b4:e5:48:30:55:0c:be:2a:05:b0:13:e0:21:76:45:09:
         18:7a:d2:52:d1:1a:8e:2b:1c:81:42:d4:ea:5f:d4:22:e3:a9:
         98:5e:bc:56:a1:ef:c7:a1:04:33:b5:29:2d:b5:d7:42:4b:8c:
         94:4f:bd:61:62:91:8f:46:ec:b1:52:ad:a1:28:70:de:6f:93:
         0e:ca:e4:d7:17:c6:ce:4e:a5:2c:f3:e9:70:e6:ef:74:d9:11:
         88:fb:9f:a0:c0:83:d0:28:bc:87:4e:52:a1:00:96:2c:52:c9:
         70:ea:e7:f3:21:95:4b:06:87:81:b7:2c:b9:55:f5:e6:b0:a7:
         79:e5:c8:84:66:d1:96:79:ea:8c:3f:d9:fa:f5:86:87:74:65:
         78:e4:af:74:80:cc:86:76:03:a1:19:bb:81:9b:34:6f:98:48:
         67:a3:3d:90:1a:83:4d:fe:b5:ae:b6:95:ef:ed:0b:cc:5b:96:
         30:8a:bb:fa:b7:9e:d9:e0:88:78:1b:f6:e9:ff:8b:44:55:f2:
         50:31:96:a8:47:e2:65:1d:b2:b7:26:39:e1:55:1c:fe:9b:4c:
         57:09:33:d4:47:ad:84:7b:b6:26:a6:71:02:9d:6a:91:65:1c:
         8b:ef:80:64:de:37:4f:2a:7f:34:9f:6b:a9:98:cc:e6:74:92:
         43:34:03:56:f7:c4:f2:c7:8b:7b:fe:fc:9a:6c:26:33:da:43:
         f8:d3:06:c5:63:29:74:0d:0c:07:02:4d:d0:dc:e1:95:ca:7f:
         ae:75:8a:b6:9e:ee:de:3a
-----BEGIN CERTIFICATE-----
MIID7jCCAdagAwIBAgIBAjANBgkqhkiG9w0BAQsFADAuMQswCQYDVQQGEwJVVDEP
MA0GA1UECgwGVVRPUElBMQ4wDAYDVQQDDAVDU0NBMTAeFw0yMTEwMjAxMjEwMTha
Fw0yNDEwMTkxMjEwMThaMBoxCzAJBgNVBAYTAlVUMQswCQYDVQQDDAJBMTCCARMw
gdQGByqGSM49AgEwgcgCAQEwKAYHKoZIzj0BAQIdANfBNKomQ2aGKhgwJXXR14ew
nwdXl9qJ9X7IwP8wPAQcaKXmLKnObBwpmAOmwVMLUU4YKtiwBCpZytKfQwQcJYD2
PM/kQTiHBxOxqSNp4z4hNdJm27NyOGxACwQ5BA2QKa0sflz0NAgjsqh9xoyeTOMX
TB5u/e4SwH1Yqlb3csBybyTGuJ5OzawkNUuemcqj9tN2FALNAh0A18E0qiZDZoYq
GDAlddD7mNEWvEtt3ryjpaeTnwIBAQM6AATBWidMSa55454DGh7j+IkWfswMr33v
jwQiNONEo+LRC3+yL5dDcfdCfDQqrMdAC8PfR/8cMVRMJ6M6MDgwHwYDVR0jBBgw
FoAUCoYRgjvodzM4CDLB5bSdQMEXyBIwFQYDVR0lAQH/BAswCQYHZ4EIAQEOAjAN
BgkqhkiG9w0BAQsFAAOCAgEAe+CFC4CEPjGx9vDi+zWKCho6QtwGI/MVwWqmgoRS
UgBgMrtAq/tYeWz8tD6kZzLW8M5PxGLRUyd4oBt2WzdNqHGJ72w4NDeUm33DH40g
bivStdcHIeYxxNCq1WFiN1oAfqpi+XdzfSgRSSuYY+8sZoGxg2A7ydMIGN4CuWGD
Op1T/BViespPkZWFo9P8wdetaV3mqjLu7oiDISkfxQhGRFMpOJrw/blxhl5ZgRSh
Zrvpz8nzMZitxPompJLCL0rHCofLwPRKvFF4W5DQt0n3MWVrXjHtLFC4haO05Ugw
VQy+KgWwE+AhdkUJGHrSUtEajiscgULU6l/UIuOpmF68VqHvx6EEM7UpLbXXQkuM
lE+9YWKRj0bssVKtoShw3m+TDsrk1xfGzk6lLPPpcObvdNkRiPufoMCD0Ci8h05S
oQCWLFLJcOrn8yGVSwaHgbcsuVX15rCneeXIhGbRlnnqjD/Z+vWGh3RleOSvdIDM
hnYDoRm7gZs0b5hIZ6M9kBqDTf61rraV7+0LzFuWMIq7+ree2eCIeBv26f+LRFXy
UDGWqEfiZR2ytyY54VUc/ptMVwkz1EethHu2JqZxAp1qkWUci++AZN43Typ/NJ9r
qZjM5nSSQzQDVvfE8seLe/78mmwmM9pD+NMGxWMpdA0MBwJN0Nzhlcp/rnWKtp7u
3jo=
-----END CERTIFICATE-----
