Certificate:
    Data:
        Version: 3 (0x2)
        Serial Number: 4663 (0x1237)
    Signature Algorithm: sha256WithRSAEncryption
        Issuer: C=UT, O=UTOPIA, CN=CSCA2
        Validity
            Not Before: Oct 20 12:24:05 2021 GMT
            Not After : Oct 19 12:24:05 2024 GMT
        Subject: C=UT, CN=B3
        Subject Public Key Info:
            Public Key Algorithm: id-ecPublicKey
                Public-Key: (320 bit)
                pub: 
                    04:12:90:19:cd:3b:30:fd:54:f2:87:dd:71:79:f7:
                    18:5f:9b:6a:f2:60:95:83:ca:c0:d1:da:7a:65:93:
                    ae:74:b1:8b:3f:44:f0:7a:82:1a:9d:99:2b:cd:10:
                    83:27:35:89:9e:ee:b7:08:5a:b6:05:63:33:a2:9d:
                    dd:94:a4:68:ac:62:5a:39:86:6e:b7:06:a2:19:c3:
                    38:b3:8b:ea:40:3e
                Field Type: prime-field
                Prime:
                    00:d3:5e:47:20:36:bc:4f:b7:e1:3c:78:5e:d2:01:
                    e0:65:f9:8f:cf:a6:f6:f4:0d:ef:4f:92:b9:ec:78:
                    93:ec:28:fc:d4:12:b1:f1:b3:2e:27
                A:   
                    3e:e3:0b:56:8f:ba:b0:f8:83:cc:eb:d4:6d:3f:3b:
                    b8:a2:a7:35:13:f5:eb:79:da:66:19:0e:b0:85:ff:
                    a9:f4:92:f3:75:a9:7d:86:0e:b4
                B:   
                    52:08:83:94:9d:fd:bc:42:d3:ad:19:86:40:68:8a:
                    6f:e1:3f:41:34:95:54:b4:9a:cc:31:dc:cd:88:45:
                    39:81:6f:5e:b4:ac:8f:b1:f1:a6
                Generator (uncompressed):
                    04:43:bd:7e:9a:fb:53:d8:b8:52:89:bc:c4:8e:e5:
                    bf:e6:f2:01:37:d1:0a:08:7e:b6:e7:87:1e:2a:10:
                    a5:99:c7:10:af:8d:0d:39:e2:06:11:14:fd:d0:55:
                    45:ec:1c:c8:ab:40:93:24:7f:77:27:5e:07:43:ff:
                    ed:11:71:82:ea:a9:c7:78:77:aa:ac:6a:c7:d3:52:
                    45:d1:69:2e:8e:e1
                Order: 
                    00:d3:5e:47:20:36:bc:4f:b7:e1:3c:78:5e:d2:01:
                    e0:65:f9:8f:cf:a5:b6:8f:12:a3:2d:48:2e:c7:ee:
                    86:58:e9:86:91:55:5b:44:c5:93:11
                Cofactor:  1 (0x1)
        X509v3 extensions:
            X509v3 Authority Key Identifier: 
                keyid:AD:22:DC:C6:8E:14:91:5F:3D:67:1A:7E:15:A6:3A:7C:1A:42:31:C9

            X509v3 Extended Key Usage: critical
                2.23.136.1.1.14.2
    Signature Algorithm: sha256WithRSAEncryption
         bc:e6:1c:1f:08:a5:9c:79:53:f0:28:4a:85:94:2a:1e:56:48:
         be:dd:4a:6c:a0:c2:a9:83:f6:1a:be:4f:3f:a9:96:7d:57:e2:
         ec:1f:2c:ab:79:82:e7:80:e6:69:45:1f:90:28:8a:24:d3:0a:
         b4:80:53:c3:ac:91:b4:0b:49:b2:e4:ea:23:90:50:37:95:7c:
         e3:63:e4:ed:33:94:52:07:28:13:d3:6a:62:63:9b:b8:00:a7:
         99:95:0c:6b:27:ef:95:59:cb:05:7e:d6:65:6a:1c:51:26:34:
         53:af:2c:b2:e0:7d:ac:13:f0:a3:1f:50:4a:ae:1e:44:91:5b:
         61:82:05:3e:7a:47:a4:79:e7:dd:2e:31:65:30:3d:6c:f1:a5:
         25:c9:b0:7d:6c:ff:86:8c:08:eb:9e:c5:7f:c0:e3:e3:00:5b:
         68:52:92:14:19:a9:12:71:f9:91:af:97:d6:87:1e:a2:7a:05:
         e4:35:7b:f4:2b:be:cc:73:1b:53:51:72:63:97:8b:fe:c9:ce:
         5b:3c:39:cc:f0:dd:dd:8f:52:96:d7:c5:d1:41:99:f7:e5:2a:
         fd:32:3c:4e:04:d6:5e:db:ff:60:c5:0b:9b:c8:12:33:8e:2d:
         6c:6b:59:76:e5:17:15:df:d2:92:e0:64:da:93:d5:7d:91:eb:
         4b:04:06:f0:3f:40:68:00:fd:57:9c:53:9d:6a:53:4d:20:6b:
         a6:95:e4:76:09:95:b3:d5:0d:28:c1:af:29:e0:35:1a:41:bd:
         05:a8:2c:86:f0:27:eb:18:0a:04:74:2c:08:34:37:f2:92:0b:
         56:1a:8d:06:bf:9c:0e:f8:d8:34:b3:a0:7b:3f:14:71:61:c1:
         60:b5:90:2e:e9:64:5a:44:f5:68:44:62:37:86:d0:ab:b8:d3:
         8e:8f:b0:2a:5e:26:11:28:88:0f:af:ca:57:18:13:7b:de:2e:
         ba:10:75:d0:55:12:b2:24:9d:d7:ff:56:21:c8:14:46:0a:b9:
         18:86:cb:45:ff:e5:57:07:21:39:11:c9:1b:3e:4e:98:75:38:
         94:d9:4b:18:4f:b7:ef:89:92:69:b2:03:8d:6a:8f:3d:b0:55:
         ec:ca:5f:6b:fe:be:16:fe:e6:fd:ff:f8:7d:25:35:b7:e0:63:
         3d:be:61:ed:52:06:ce:ac:03:55:25:49:35:2b:11:b9:f8:6d:
         4e:9e:70:24:92:06:10:9d:af:c4:13:6c:3a:aa:f0:61:86:19:
         5d:08:bb:01:32:b9:cb:e9:77:98:76:50:de:cb:78:a5:1c:96:
         68:c1:7b:77:6c:d1:f0:88:dd:9c:26:f7:7b:71:99:fc:e9:1f:
         85:8d:b7:5b:88:3c:69:9b
-----BEGIN CERTIFICATE-----
MIIEUTCCAjmgAwIBAgICEjcwDQYJKoZIhvcNAQELBQAwLjELMAkGA1UEBhMCVVQx
DzANBgNVBAoMBlVUT1BJQTEOMAwGA1UEAwwFQ1NDQTIwHhcNMjExMDIwMTIyNDA1
WhcNMjQxMDE5MTIyNDA1WjAaMQswCQYDVQQGEwJVVDELMAkGA1UEAwwCQjMwggF1
MIIBHQYHKoZIzj0CATCCARACAQEwNAYHKoZIzj0BAQIpANNeRyA2vE+34Tx4XtIB
4GX5j8+m9vQN70+Suex4k+wo/NQSsfGzLicwVAQoPuMLVo+6sPiDzOvUbT87uKKn
NRP163naZhkOsIX/qfSS83WpfYYOtAQoUgiDlJ39vELTrRmGQGiKb+E/QTSVVLSa
zDHczYhFOYFvXrSsj7HxpgRRBEO9fpr7U9i4Uom8xI7lv+byATfRCgh+tueHHioQ
pZnHEK+NDTniBhEU/dBVRewcyKtAkyR/dydeB0P/7RFxguqpx3h3qqxqx9NSRdFp
Lo7hAikA015HIDa8T7fhPHhe0gHgZfmPz6W2jxKjLUgux+6GWOmGkVVbRMWTEQIB
AQNSAAQSkBnNOzD9VPKH3XF59xhfm2ryYJWDysDR2nplk650sYs/RPB6ghqdmSvN
EIMnNYme7rcIWrYFYzOind2UpGisYlo5hm63BqIZwzizi+pAPqM6MDgwHwYDVR0j
BBgwFoAUrSLcxo4UkV89Zxp+FaY6fBpCMckwFQYDVR0lAQH/BAswCQYHZ4EIAQEO
AjANBgkqhkiG9w0BAQsFAAOCAgEAvOYcHwilnHlT8ChKhZQqHlZIvt1KbKDCqYP2
Gr5PP6mWfVfi7B8sq3mC54DmaUUfkCiKJNMKtIBTw6yRtAtJsuTqI5BQN5V842Pk
7TOUUgcoE9NqYmObuACnmZUMayfvlVnLBX7WZWocUSY0U68ssuB9rBPwox9QSq4e
RJFbYYIFPnpHpHnn3S4xZTA9bPGlJcmwfWz/howI657Ff8Dj4wBbaFKSFBmpEnH5
ka+X1oceonoF5DV79Cu+zHMbU1FyY5eL/snOWzw5zPDd3Y9SltfF0UGZ9+Uq/TI8
TgTWXtv/YMULm8gSM44tbGtZduUXFd/SkuBk2pPVfZHrSwQG8D9AaAD9V5xTnWpT
TSBrppXkdgmVs9UNKMGvKeA1GkG9BagshvAn6xgKBHQsCDQ38pILVhqNBr+cDvjY
NLOgez8UcWHBYLWQLulkWkT1aERiN4bQq7jTjo+wKl4mESiID6/KVxgTe94uuhB1
0FUSsiSd1/9WIcgURgq5GIbLRf/lVwchORHJGz5OmHU4lNlLGE+374mSabIDjWqP
PbBV7Mpfa/6+Fv7m/f/4fSU1t+BjPb5h7VIGzqwDVSVJNSsRufhtTp5wJJIGEJ2v
xBNsOqrwYYYZXQi7ATK5y+l3mHZQ3st4pRyWaMF7d2zR8IjdnCb3e3GZ/OkfhY23
W4g8aZs=
-----END CERTIFICATE-----
