Certificate:
    Data:
        Version: 3 (0x2)
        Serial Number: 4662 (0x1236)
    Signature Algorithm: sha256WithRSAEncryption
        Issuer: C=UT, O=UTOPIA, CN=CSCA2
        Validity
            Not Before: Oct 20 12:23:56 2021 GMT
            Not After : Oct 19 12:23:56 2024 GMT
        Subject: C=UT, CN=B2
        Subject Public Key Info:
            Public Key Algorithm: id-ecPublicKey
                Public-Key: (256 bit)
                pub: 
                    04:41:68:6b:bf:08:a4:00:25:2f:06:f6:e4:f2:0c:
                    30:e0:99:d3:a0:4d:d5:06:92:2c:eb:e1:42:60:4b:
                    06:70:b9:9b:60:1c:34:7d:d5:66:22:da:c9:b5:fc:
                    b7:24:9a:8f:47:ed:65:c6:12:dd:d1:7b:ca:7d:aa:
                    0b:43:bc:63:be
                Field Type: prime-field
                Prime:
                    00:a9:fb:57:db:a1:ee:a9:bc:3e:66:0a:90:9d:83:
                    8d:72:6e:3b:f6:23:d5:26:20:28:20:13:48:1d:1f:
                    6e:53:77
                A:   
                    7d:5a:09:75:fc:2c:30:57:ee:f6:75:30:41:7a:ff:
                    e7:fb:80:55:c1:26:dc:5c:6c:e9:4a:4b:44:f3:30:
                    b5:d9
                B:   
                    26:dc:5c:6c:e9:4a:4b:44:f3:30:b5:d9:bb:d7:7c:
                    bf:95:84:16:29:5c:f7:e1:ce:6b:cc:dc:18:ff:8c:
                    07:b6
                Generator (uncompressed):
                    04:8b:d2:ae:b9:cb:7e:57:cb:2c:4b:48:2f:fc:81:
                    b7:af:b9:de:27:e1:e3:bd:23:c2:3a:44:53:bd:9a:
                    ce:32:62:54:7e:f8:35:c3:da:c4:fd:97:f8:46:1a:
                    14:61:1d:c9:c2:77:45:13:2d:ed:8e:54:5c:1d:54:
                    c7:2f:04:69:97
                Order: 
                    00:a9:fb:57:db:a1:ee:a9:bc:3e:66:0a:90:9d:83:
                    8d:71:8c:39:7a:a3:b5:61:a6:f7:90:1e:0e:82:97:
                    48:56:a7
                Cofactor:  1 (0x1)
        X509v3 extensions:
            X509v3 Authority Key Identifier: 
                keyid:AD:22:DC:C6:8E:14:91:5F:3D:67:1A:7E:15:A6:3A:7C:1A:42:31:C9

            X509v3 Extended Key Usage: critical
                2.23.136.1.1.14.2
    Signature Algorithm: sha256WithRSAEncryption
         53:cf:78:94:ac:9c:a4:df:8e:5f:ca:97:7c:bd:e9:f6:2e:c7:
         8c:52:18:ca:a8:bf:cf:85:05:da:b9:08:1e:55:84:e8:6e:b9:
         40:eb:b1:3e:f3:74:fe:4d:7a:15:75:62:e0:a9:72:72:59:d7:
         fe:7e:1a:1c:3e:10:7a:cf:f0:82:f6:74:d3:3d:8b:79:30:a2:
         e8:04:25:e3:d1:10:81:d8:c3:cd:67:7d:b4:2e:eb:21:82:02:
         4e:24:b4:cf:2b:ea:19:55:a4:73:34:18:7a:c0:6d:85:e0:2d:
         66:c7:71:e1:82:4d:44:f0:f4:2b:97:b4:10:19:e1:a5:31:a9:
         11:d7:31:0b:ed:6f:8d:f1:ed:63:32:8f:f7:19:d5:93:f4:0a:
         5d:bb:34:be:f8:24:fd:ec:83:c9:7a:6d:14:22:c3:53:5b:82:
         c0:db:af:f1:e3:c1:a4:1f:3d:8d:26:95:e9:e8:66:d9:4d:6a:
         e8:1c:01:a7:df:ac:ce:37:e6:63:cc:4a:bd:62:84:06:fa:50:
         c8:6d:7d:98:d6:fe:f0:3d:25:cc:cb:3f:b1:cd:1c:19:cf:99:
         71:7e:86:28:c6:a7:ea:91:f4:29:8f:a2:f1:a7:e9:a2:c5:6f:
         a4:a6:5b:95:f5:c4:3f:23:cd:fa:e1:68:14:95:bd:9b:5f:4b:
         22:11:9c:f4:2e:9c:24:d4:ec:3f:0a:f7:b6:62:74:cf:79:5c:
         97:48:45:05:36:24:91:ae:c4:89:2f:86:e8:87:9f:5d:28:08:
         e0:e1:1a:25:f7:01:3a:b9:8e:6c:78:b2:11:0f:70:24:9b:5c:
         80:6d:24:95:da:d4:47:de:c3:a7:13:16:ef:8e:36:7d:9b:19:
         c0:df:36:8a:52:69:54:5f:a8:1d:f2:ff:da:c8:96:70:e5:3f:
         8b:2d:c6:dc:3a:04:2a:0d:ea:59:40:7f:47:e0:4c:26:ac:95:
         a4:25:3d:e8:a3:71:92:27:7e:7e:27:19:08:4b:f4:88:28:2a:
         4e:90:ea:39:9c:12:1b:17:c5:26:2b:de:41:6e:9c:f9:49:d6:
         f6:d9:1f:a0:0d:b9:b6:75:e2:14:99:26:bf:14:41:ea:c2:a2:
         28:e6:13:37:01:dc:15:f1:bb:99:b8:45:c7:4a:94:cb:c7:25:
         f2:26:b3:7c:07:60:fe:80:ce:9a:c7:58:a8:d5:2a:4a:68:90:
         42:44:84:6f:64:91:7b:56:98:76:7d:63:35:28:12:a9:09:dc:
         53:05:f3:78:b7:2c:85:42:c7:08:30:c5:aa:fe:92:0a:81:3b:
         94:ba:db:b3:59:f4:cf:18:a0:a2:a4:11:6a:f1:cd:fc:5a:2d:
         ec:5a:09:78:c3:88:a5:83
-----BEGIN CERTIFICATE-----
MIIEDzCCAfegAwIBAgICEjYwDQYJKoZIhvcNAQELBQAwLjELMAkGA1UEBhMCVVQx
DzANBgNVBAoMBlVUT1BJQTEOMAwGA1UEAwwFQ1NDQTIwHhcNMjExMDIwMTIyMzU2
WhcNMjQxMDE5MTIyMzU2WjAaMQswCQYDVQQGEwJVVDELMAkGA1UEAwwCQjIwggEz
MIHsBgcqhkjOPQIBMIHgAgEBMCwGByqGSM49AQECIQCp+1fboe6pvD5mCpCdg41y
bjv2I9UmICggE0gdH25TdzBEBCB9Wgl1/CwwV+72dTBBev/n+4BVwSbcXGzpSktE
8zC12QQgJtxcbOlKS0TzMLXZu9d8v5WEFilc9+HOa8zcGP+MB7YEQQSL0q65y35X
yyxLSC/8gbevud4n4eO9I8I6RFO9ms4yYlR++DXD2sT9l/hGGhRhHcnCd0UTLe2O
VFwdVMcvBGmXAiEAqftX26Huqbw+ZgqQnYONcYw5eqO1Yab3kB4OgpdIVqcCAQED
QgAEQWhrvwikACUvBvbk8gww4JnToE3VBpIs6+FCYEsGcLmbYBw0fdVmItrJtfy3
JJqPR+1lxhLd0XvKfaoLQ7xjvqM6MDgwHwYDVR0jBBgwFoAUrSLcxo4UkV89Zxp+
FaY6fBpCMckwFQYDVR0lAQH/BAswCQYHZ4EIAQEOAjANBgkqhkiG9w0BAQsFAAOC
AgEAU894lKycpN+OX8qXfL3p9i7HjFIYyqi/z4UF2rkIHlWE6G65QOuxPvN0/k16
FXVi4KlyclnX/n4aHD4Qes/wgvZ00z2LeTCi6AQl49EQgdjDzWd9tC7rIYICTiS0
zyvqGVWkczQYesBtheAtZsdx4YJNRPD0K5e0EBnhpTGpEdcxC+1vjfHtYzKP9xnV
k/QKXbs0vvgk/eyDyXptFCLDU1uCwNuv8ePBpB89jSaV6ehm2U1q6BwBp9+szjfm
Y8xKvWKEBvpQyG19mNb+8D0lzMs/sc0cGc+ZcX6GKMan6pH0KY+i8afposVvpKZb
lfXEPyPN+uFoFJW9m19LIhGc9C6cJNTsPwr3tmJ0z3lcl0hFBTYkka7EiS+G6Ief
XSgI4OEaJfcBOrmObHiyEQ9wJJtcgG0kldrUR97DpxMW7442fZsZwN82ilJpVF+o
HfL/2siWcOU/iy3G3DoEKg3qWUB/R+BMJqyVpCU96KNxkid+ficZCEv0iCgqTpDq
OZwSGxfFJiveQW6c+UnW9tkfoA25tnXiFJkmvxRB6sKiKOYTNwHcFfG7mbhFx0qU
y8cl8iazfAdg/oDOmsdYqNUqSmiQQkSEb2SRe1aYdn1jNSgSqQncUwXzeLcshULH
CDDFqv6SCoE7lLrbs1n0zxigoqQRavHN/Fot7FoJeMOIpYM=
-----END CERTIFICATE-----
