Certificate:
    Data:
        Version: 3 (0x2)
        Serial Number: 4661 (0x1235)
    Signature Algorithm: sha256WithRSAEncryption
        Issuer: C=UT, O=UTOPIA, CN=CSCA2
        Validity
            Not Before: Oct 20 12:23:47 2021 GMT
            Not After : Oct 19 12:23:47 2024 GMT
        Subject: C=UT, CN=B1
        Subject Public Key Info:
            Public Key Algorithm: id-ecPublicKey
                Public-Key: (224 bit)
                pub: 
                    04:0a:0f:bb:c4:dc:8e:01:94:a0:c4:05:a2:88:d8:
                    93:3f:81:ae:30:16:84:51:ec:29:27:ae:76:16:18:
                    48:ea:db:8b:c1:a8:81:b0:ca:a4:db:ca:e4:16:88:
                    79:61:ef:3b:b6:8a:af:dc:a9:83:aa:ef
                Field Type: prime-field
                Prime:
                    00:d7:c1:34:aa:26:43:66:86:2a:18:30:25:75:d1:
                    d7:87:b0:9f:07:57:97:da:89:f5:7e:c8:c0:ff
                A:   
                    68:a5:e6:2c:a9:ce:6c:1c:29:98:03:a6:c1:53:0b:
                    51:4e:18:2a:d8:b0:04:2a:59:ca:d2:9f:43
                B:   
                    25:80:f6:3c:cf:e4:41:38:87:07:13:b1:a9:23:69:
                    e3:3e:21:35:d2:66:db:b3:72:38:6c:40:0b
                Generator (uncompressed):
                    04:0d:90:29:ad:2c:7e:5c:f4:34:08:23:b2:a8:7d:
                    c6:8c:9e:4c:e3:17:4c:1e:6e:fd:ee:12:c0:7d:58:
                    aa:56:f7:72:c0:72:6f:24:c6:b8:9e:4e:cd:ac:24:
                    35:4b:9e:99:ca:a3:f6:d3:76:14:02:cd
                Order: 
                    00:d7:c1:34:aa:26:43:66:86:2a:18:30:25:75:d0:
                    fb:98:d1:16:bc:4b:6d:de:bc:a3:a5:a7:93:9f
                Cofactor:  1 (0x1)
        X509v3 extensions:
            X509v3 Authority Key Identifier: 
                keyid:AD:22:DC:C6:8E:14:91:5F:3D:67:1A:7E:15:A6:3A:7C:1A:42:31:C9

            X509v3 Extended Key Usage: critical
                2.23.136.1.1.14.2
    Signature Algorithm: sha256WithRSAEncryption
         3a:0c:5c:26:5f:d7:9f:08:25:83:a3:c6:db:37:9e:48:0b:9f:
         84:f7:21:7b:1e:61:b5:55:c8:b5:0d:a1:e9:e6:86:6d:3a:76:
         73:08:0f:45:3d:3f:f4:d1:b4:85:42:39:a0:39:9b:8a:57:23:
         15:fa:80:e7:93:24:ee:06:1e:c5:f0:62:87:ca:46:39:9a:5f:
         82:a4:bd:7d:56:58:90:20:e9:23:0a:ac:0d:b3:ae:69:4a:82:
         2b:ca:88:ad:b4:f9:51:08:10:65:24:25:48:66:33:89:6c:a3:
         1a:a3:34:39:5c:cf:22:4d:19:10:7c:87:c1:d7:d7:63:dc:b5:
         90:fd:e0:d3:65:c9:37:29:d7:48:e7:35:01:43:6f:9a:55:9a:
         3b:c8:25:60:d6:c4:6a:71:88:7a:89:75:a7:c2:8a:9b:5d:80:
         a4:39:15:0f:2e:32:b7:27:07:28:d7:b4:86:f0:81:5b:6e:81:
         de:b1:9b:f7:8c:17:51:c7:0c:5e:95:31:84:62:a1:06:ad:22:
         00:26:ee:2d:80:88:a2:99:e8:b4:99:1d:0e:78:d6:77:ae:ae:
         71:b3:e9:50:5a:06:9d:46:73:45:84:53:4d:22:ca:56:40:a7:
         2e:c6:17:50:7f:25:50:2d:40:79:ff:75:70:88:4e:fe:07:a8:
         fe:53:29:83:31:01:d1:31:90:31:73:4c:24:c4:d6:25:c2:7a:
         4d:a3:5e:0b:ef:4a:6b:3e:3d:d2:28:f4:64:ca:0d:01:dc:f6:
         a7:95:f7:ca:01:f6:26:7f:df:79:64:7a:2c:d0:12:91:2f:95:
         d3:eb:eb:df:a2:21:03:dd:13:da:d5:f1:72:32:8f:c4:bd:f4:
         dc:f1:d3:9f:48:33:49:8a:9c:24:09:39:1b:15:a8:8f:8e:60:
         d9:70:4d:f8:58:0f:e3:1f:1c:ec:54:b2:4a:d7:51:1f:1a:97:
         10:37:fc:21:bb:a3:9d:61:7b:5e:71:4e:81:46:eb:3a:4c:a8:
         a4:1d:b0:a6:68:be:b2:37:e3:97:4c:25:e4:49:df:c5:05:68:
         1e:85:a1:97:78:d8:82:5c:82:a2:39:07:8e:8f:46:b0:51:6c:
         71:9e:65:d7:47:0a:96:a6:d4:e8:0e:00:b4:e9:d1:53:95:1d:
         bf:00:19:1e:5d:a3:e6:ed:25:06:62:b8:88:59:36:90:31:9c:
         bb:6a:8a:e8:1c:37:b5:0b:f2:6f:1f:4d:fc:09:85:93:ea:e7:
         0c:4e:45:1b:ca:c0:ef:5c:42:8e:0e:b6:66:ba:e2:39:d4:05:
         aa:98:b7:e4:29:9b:cf:82:bd:4c:d4:61:10:f8:fd:44:9c:6d:
         1d:02:a7:cf:e6:59:21:10
-----BEGIN CERTIFICATE-----
MIID7zCCAdegAwIBAgICEjUwDQYJKoZIhvcNAQELBQAwLjELMAkGA1UEBhMCVVQx
DzANBgNVBAoMBlVUT1BJQTEOMAwGA1UEAwwFQ1NDQTIwHhcNMjExMDIwMTIyMzQ3
WhcNMjQxMDE5MTIyMzQ3WjAaMQswCQYDVQQGEwJVVDELMAkGA1UEAwwCQjEwggET
MIHUBgcqhkjOPQIBMIHIAgEBMCgGByqGSM49AQECHQDXwTSqJkNmhioYMCV10deH
sJ8HV5faifV+yMD/MDwEHGil5iypzmwcKZgDpsFTC1FOGCrYsAQqWcrSn0MEHCWA
9jzP5EE4hwcTsakjaeM+ITXSZtuzcjhsQAsEOQQNkCmtLH5c9DQII7KofcaMnkzj
F0webv3uEsB9WKpW93LAcm8kxrieTs2sJDVLnpnKo/bTdhQCzQIdANfBNKomQ2aG
KhgwJXXQ+5jRFrxLbd68o6Wnk58CAQEDOgAECg+7xNyOAZSgxAWiiNiTP4GuMBaE
UewpJ652FhhI6tuLwaiBsMqk28rkFoh5Ye87toqv3KmDqu+jOjA4MB8GA1UdIwQY
MBaAFK0i3MaOFJFfPWcafhWmOnwaQjHJMBUGA1UdJQEB/wQLMAkGB2eBCAEBDgIw
DQYJKoZIhvcNAQELBQADggIBADoMXCZf158IJYOjxts3nkgLn4T3IXseYbVVyLUN
oenmhm06dnMID0U9P/TRtIVCOaA5m4pXIxX6gOeTJO4GHsXwYofKRjmaX4KkvX1W
WJAg6SMKrA2zrmlKgivKiK20+VEIEGUkJUhmM4lsoxqjNDlczyJNGRB8h8HX12Pc
tZD94NNlyTcp10jnNQFDb5pVmjvIJWDWxGpxiHqJdafCiptdgKQ5FQ8uMrcnByjX
tIbwgVtugd6xm/eMF1HHDF6VMYRioQatIgAm7i2AiKKZ6LSZHQ541neurnGz6VBa
Bp1Gc0WEU00iylZApy7GF1B/JVAtQHn/dXCITv4HqP5TKYMxAdExkDFzTCTE1iXC
ek2jXgvvSms+PdIo9GTKDQHc9qeV98oB9iZ/33lkeizQEpEvldPr69+iIQPdE9rV
8XIyj8S99Nzx059IM0mKnCQJORsVqI+OYNlwTfhYD+MfHOxUskrXUR8alxA3/CG7
o51he15xToFG6zpMqKQdsKZovrI345dMJeRJ38UFaB6FoZd42IJcgqI5B46PRrBR
bHGeZddHCpam1OgOALTp0VOVHb8AGR5do+btJQZiuIhZNpAxnLtqiugcN7UL8m8f
TfwJhZPq5wxORRvKwO9cQo4Otma64jnUBaqYt+Qpm8+CvUzUYRD4/UScbR0Cp8/m
WSEQ
-----END CERTIFICATE-----
