Certificate:
    Data:
        Version: 3 (0x2)
        Serial Number: 95369244772 (0x1634733064)
    Signature Algorithm: sha256WithRSAEncryption
        Issuer: C=UT, O=UTOPIA, CN=CSCA4
        Validity
            Not Before: Oct 20 12:31:21 2021 GMT
            Not After : Oct 19 12:31:21 2024 GMT
        Subject: C=UT, CN=C1
        Subject Public Key Info:
            Public Key Algorithm: id-ecPublicKey
                Public-Key: (224 bit)
                pub: 
                    04:8f:a7:b9:27:27:2f:93:ba:6f:ed:15:5d:83:16:
                    7b:95:d3:c3:a1:4e:fd:22:78:42:94:ee:d5:66:57:
                    1a:64:2c:df:fc:b1:c3:76:bb:d7:3b:62:71:dc:56:
                    12:b3:86:ae:8e:87:c1:f5:24:92:60:7f
                Field Type: prime-field
                Prime:
                    00:d7:c1:34:aa:26:43:66:86:2a:18:30:25:75:d1:
                    d7:87:b0:9f:07:57:97:da:89:f5:7e:c8:c0:ff
                A:   
                    68:a5:e6:2c:a9:ce:6c:1c:29:98:03:a6:c1:53:0b:
                    51:4e:18:2a:d8:b0:04:2a:59:ca:d2:9f:43
                B:   
                    25:80:f6:3c:cf:e4:41:38:87:07:13:b1:a9:23:69:
                    e3:3e:21:35:d2:66:db:b3:72:38:6c:40:0b
                Generator (uncompressed):
                    04:0d:90:29:ad:2c:7e:5c:f4:34:08:23:b2:a8:7d:
                    c6:8c:9e:4c:e3:17:4c:1e:6e:fd:ee:12:c0:7d:58:
                    aa:56:f7:72:c0:72:6f:24:c6:b8:9e:4e:cd:ac:24:
                    35:4b:9e:99:ca:a3:f6:d3:76:14:02:cd
                Order: 
                    00:d7:c1:34:aa:26:43:66:86:2a:18:30:25:75:d0:
                    fb:98:d1:16:bc:4b:6d:de:bc:a3:a5:a7:93:9f
                Cofactor:  1 (0x1)
        X509v3 extensions:
            X509v3 Authority Key Identifier: 
                keyid:4A:42:63:7F:97:87:CD:CA:0E:69:7A:C6:77:58:1B:B0:E7:B8:00:FC

            X509v3 Extended Key Usage: critical
                2.23.136.1.1.14.2
    Signature Algorithm: sha256WithRSAEncryption
         14:a2:b9:f9:72:cb:d0:70:b3:81:3a:97:a6:2a:10:1a:c1:76:
         a0:bd:23:7e:7b:8b:26:5c:90:de:8e:75:0d:12:96:24:42:0e:
         f6:3c:a0:af:43:e6:18:57:f5:9c:97:f3:66:42:d3:1d:7b:88:
         80:fe:1b:bd:06:a3:f0:da:2c:9a:1d:24:2c:47:77:7c:1f:dc:
         30:01:ff:2a:eb:95:fe:d5:d9:7e:48:63:2e:41:b6:b1:cb:6c:
         62:88:c5:24:ae:80:83:62:b3:95:a0:e0:9e:18:91:fb:8c:9c:
         67:6f:f1:df:55:33:a2:71:5c:4e:c4:79:51:32:f3:17:54:90:
         d6:32:27:b6:16:9a:9e:69:c7:5e:45:1a:48:88:e6:4f:78:da:
         65:6a:c6:95:e3:35:9c:b6:8c:4d:8e:3e:7d:c2:97:0a:f5:58:
         07:33:2c:7e:a8:f7:1c:b3:4c:de:8c:a1:43:3c:af:88:f9:12:
         e5:34:d1:21:8c:a6:a7:1e:e4:a1:81:0f:64:ef:19:c5:7b:fa:
         40:b8:db:1e:8a:06:d4:cd:8f:bc:a6:33:a4:e4:22:2a:8b:29:
         f2:42:7b:42:6b:7a:d1:05:67:f1:9c:04:a7:50:bf:35:37:be:
         9a:15:4f:c2:d5:3e:aa:b9:29:3a:80:30:4e:91:16:08:9f:23:
         41:9b:f1:c1:16:50:12:53:68:ca:01:ab:c6:63:3a:95:bd:cf:
         bb:65:a1:b1:43:bd:d8:04:e8:37:ff:6c:ba:f2:6a:59:e6:84:
         b1:01:d3:23:fe:85:b2:a2:69:69:95:9e:3d:4e:cc:c6:df:a8:
         dd:b0:fc:e1:77:0a:35:62:21:ff:bf:da:93:5e:4a:40:70:b3:
         21:aa:da:21:a8:45:c3:f4:42:43:87:b6:95:44:1f:88:ad:77:
         bb:97:d5:60:66:f6:3d:b2:8d:43:81:73:e7:80:74:58:bf:8d:
         d7:4e:9c:a2:53:2a:c7:93:95:f9:a8:3d:a8:f0:9a:7e:58:be:
         6a:c4:ed:17:9b:d3:1c:33:c6:88:11:31:17:9b:16:55:95:2c:
         72:0e:e1:d7:6f:32:19:ab:c2:03:60:6c:ed:01:6e:98:3c:69:
         8e:a2:ac:00:18:ca:b7:8d:96:e9:07:b5:ec:ca:fe:34:8d:58:
         52:b3:d6:27:df:cf:c6:99:9f:aa:00:74:e2:53:9b:3a:c2:89:
         07:03:d5:9c:9b:27:23:00:f7:b1:a1:78:c9:d5:54:7d:cf:a9:
         b4:d4:52:35:ca:6b:96:37:9e:19:d2:7c:1c:2e:2a:66:a2:a1:
         93:85:68:19:7d:54:ab:d4:a2:69:bd:93:be:a7:cd:ab:55:61:
         51:48:90:0d:34:85:a3:bf
-----BEGIN CERTIFICATE-----
MIID8jCCAdqgAwIBAgIFFjRzMGQwDQYJKoZIhvcNAQELBQAwLjELMAkGA1UEBhMC
VVQxDzANBgNVBAoMBlVUT1BJQTEOMAwGA1UEAwwFQ1NDQTQwHhcNMjExMDIwMTIz
MTIxWhcNMjQxMDE5MTIzMTIxWjAaMQswCQYDVQQGEwJVVDELMAkGA1UEAwwCQzEw
ggETMIHUBgcqhkjOPQIBMIHIAgEBMCgGByqGSM49AQECHQDXwTSqJkNmhioYMCV1
0deHsJ8HV5faifV+yMD/MDwEHGil5iypzmwcKZgDpsFTC1FOGCrYsAQqWcrSn0ME
HCWA9jzP5EE4hwcTsakjaeM+ITXSZtuzcjhsQAsEOQQNkCmtLH5c9DQII7KofcaM
nkzjF0webv3uEsB9WKpW93LAcm8kxrieTs2sJDVLnpnKo/bTdhQCzQIdANfBNKom
Q2aGKhgwJXXQ+5jRFrxLbd68o6Wnk58CAQEDOgAEj6e5Jycvk7pv7RVdgxZ7ldPD
oU79InhClO7VZlcaZCzf/LHDdrvXO2Jx3FYSs4aujofB9SSSYH+jOjA4MB8GA1Ud
IwQYMBaAFEpCY3+Xh83KDml6xndYG7DnuAD8MBUGA1UdJQEB/wQLMAkGB2eBCAEB
DgIwDQYJKoZIhvcNAQELBQADggIBABSiuflyy9Bws4E6l6YqEBrBdqC9I357iyZc
kN6OdQ0SliRCDvY8oK9D5hhX9ZyX82ZC0x17iID+G70Go/DaLJodJCxHd3wf3DAB
/yrrlf7V2X5IYy5BtrHLbGKIxSSugINis5Wg4J4YkfuMnGdv8d9VM6JxXE7EeVEy
8xdUkNYyJ7YWmp5px15FGkiI5k942mVqxpXjNZy2jE2OPn3Clwr1WAczLH6o9xyz
TN6MoUM8r4j5EuU00SGMpqce5KGBD2TvGcV7+kC42x6KBtTNj7ymM6TkIiqLKfJC
e0JretEFZ/GcBKdQvzU3vpoVT8LVPqq5KTqAME6RFgifI0Gb8cEWUBJTaMoBq8Zj
OpW9z7tlobFDvdgE6Df/bLryalnmhLEB0yP+hbKiaWmVnj1OzMbfqN2w/OF3CjVi
If+/2pNeSkBwsyGq2iGoRcP0QkOHtpVEH4itd7uX1WBm9j2yjUOBc+eAdFi/jddO
nKJTKseTlfmoPajwmn5YvmrE7Reb0xwzxogRMRebFlWVLHIO4ddvMhmrwgNgbO0B
bpg8aY6irAAYyreNlukHtezK/jSNWFKz1iffz8aZn6oAdOJTmzrCiQcD1ZybJyMA
97GheMnVVH3PqbTUUjXKa5Y3nhnSfBwuKmaioZOFaBl9VKvUomm9k76nzatVYVFI
kA00haO/
-----END CERTIFICATE-----
