Certificate:
    Data:
        Version: 3 (0x2)
        Serial Number: 95369244775 (0x1634733067)
    Signature Algorithm: sha256WithRSAEncryption
        Issuer: C=UT, O=UTOPIA, CN=CSCA4
        Validity
            Not Before: Oct 20 12:31:44 2021 GMT
            Not After : Oct 19 12:31:44 2024 GMT
        Subject: C=UT, CN=C4
        Subject Public Key Info:
            Public Key Algorithm: id-ecPublicKey
                Public-Key: (512 bit)
                pub: 
                    04:4d:c1:68:4d:2e:e3:d2:3d:1f:c8:b8:cf:37:f2:
                    b3:df:84:b4:c1:e1:bb:d1:6a:f7:d9:6e:77:3d:9c:
                    4b:11:68:5e:06:94:08:00:30:bd:58:b0:73:05:f6:
                    07:01:53:d2:c5:21:c7:cb:4c:25:26:b6:1e:1f:db:
                    58:3e:01:20:41:5a:63:63:3d:df:2d:42:ea:fb:68:
                    df:dc:b7:8f:73:d0:a4:93:c7:d5:fc:63:05:81:8f:
                    4a:c7:8d:7a:06:95:b7:9c:cc:88:a9:dc:84:b7:bd:
                    e5:da:e2:4e:94:42:80:c2:a7:2c:8f:dc:2b:65:4e:
                    ca:1e:52:85:b6:cb:e8:e9:26
                Field Type: prime-field
                Prime:
                    00:aa:dd:9d:b8:db:e9:c4:8b:3f:d4:e6:ae:33:c9:
                    fc:07:cb:30:8d:b3:b3:c9:d2:0e:d6:63:9c:ca:70:
                    33:08:71:7d:4d:9b:00:9b:c6:68:42:ae:cd:a1:2a:
                    e6:a3:80:e6:28:81:ff:2f:2d:82:c6:85:28:aa:60:
                    56:58:3a:48:f3
                A:   
                    78:30:a3:31:8b:60:3b:89:e2:32:71:45:ac:23:4c:
                    c5:94:cb:dd:8d:3d:f9:16:10:a8:34:41:ca:ea:98:
                    63:bc:2d:ed:5d:5a:a8:25:3a:a1:0a:2e:f1:c9:8b:
                    9a:c8:b5:7f:11:17:a7:2b:f2:c7:b9:e7:c1:ac:4d:
                    77:fc:94:ca
                B:   
                    3d:f9:16:10:a8:34:41:ca:ea:98:63:bc:2d:ed:5d:
                    5a:a8:25:3a:a1:0a:2e:f1:c9:8b:9a:c8:b5:7f:11:
                    17:a7:2b:f2:c7:b9:e7:c1:ac:4d:77:fc:94:ca:dc:
                    08:3e:67:98:40:50:b7:5e:ba:e5:dd:28:09:bd:63:
                    80:16:f7:23
                Generator (uncompressed):
                    04:81:ae:e4:bd:d8:2e:d9:64:5a:21:32:2e:9c:4c:
                    6a:93:85:ed:9f:70:b5:d9:16:c1:b4:3b:62:ee:f4:
                    d0:09:8e:ff:3b:1f:78:e2:d0:d4:8d:50:d1:68:7b:
                    93:b9:7d:5f:7c:6d:50:47:40:6a:5e:68:8b:35:22:
                    09:bc:b9:f8:22:7d:de:38:5d:56:63:32:ec:c0:ea:
                    bf:a9:cf:78:22:fd:f2:09:f7:00:24:a5:7b:1a:a0:
                    00:c5:5b:88:1f:81:11:b2:dc:de:49:4a:5f:48:5e:
                    5b:ca:4b:d8:8a:27:63:ae:d1:ca:2b:2f:a8:f0:54:
                    06:78:cd:1e:0f:3a:d8:08:92
                Order: 
                    00:aa:dd:9d:b8:db:e9:c4:8b:3f:d4:e6:ae:33:c9:
                    fc:07:cb:30:8d:b3:b3:c9:d2:0e:d6:63:9c:ca:70:
                    33:08:70:55:3e:5c:41:4c:a9:26:19:41:86:61:19:
                    7f:ac:10:47:1d:b1:d3:81:08:5d:da:dd:b5:87:96:
                    82:9c:a9:00:69
                Cofactor:  1 (0x1)
        X509v3 extensions:
            X509v3 Authority Key Identifier: 
                keyid:4A:42:63:7F:97:87:CD:CA:0E:69:7A:C6:77:58:1B:B0:E7:B8:00:FC

            X509v3 Extended Key Usage: critical
                2.23.136.1.1.14.2
    Signature Algorithm: sha256WithRSAEncryption
         71:b9:07:c5:52:39:59:31:4b:27:df:ed:0a:f4:d8:c3:78:85:
         fd:28:d9:54:bb:03:1f:27:12:36:1f:69:a9:48:d5:28:13:30:
         3c:84:18:47:44:ac:3d:86:ec:11:93:1f:2b:6b:89:97:c4:c2:
         22:84:e4:09:e4:55:47:81:d9:7a:ef:fd:49:f2:71:00:3a:ab:
         8b:33:63:84:53:8f:f8:22:d8:4c:54:0e:c2:9c:d0:75:54:23:
         cc:bd:85:d7:c9:b2:eb:02:ab:6e:76:e5:fe:55:5f:1d:44:44:
         65:e7:a9:d0:05:46:3e:bf:68:94:85:d5:66:1f:73:42:ca:b0:
         64:6e:da:16:cd:ef:f4:1c:b9:58:84:1a:4b:e4:ef:e0:21:eb:
         0d:55:1d:1f:b1:15:3e:cf:5e:96:4d:fc:90:f8:58:96:26:69:
         3a:38:7e:d1:23:15:ad:f8:18:77:e7:f8:60:4f:90:4a:94:b3:
         51:f7:1e:10:3c:e3:e8:b3:2b:5d:9d:6d:f3:b1:cb:7d:17:8c:
         1b:22:62:6b:51:f1:5d:b5:0f:00:d9:c4:45:85:86:38:33:3a:
         f4:75:7d:bd:a8:64:63:5a:b3:2e:72:b9:2b:26:96:58:bb:41:
         72:a1:5a:50:1a:d2:f6:89:3f:f4:3c:0a:1e:19:13:3a:2a:4b:
         e0:7f:87:d6:05:08:8b:64:4f:b5:f5:b7:1b:89:56:be:2e:b3:
         41:34:dc:ba:c0:8e:b1:9f:fd:ba:98:ce:92:94:23:7a:11:dd:
         93:6c:f1:15:80:b7:14:97:f4:65:ed:1f:db:19:94:65:84:d9:
         b9:a5:31:7e:19:18:90:ff:3b:84:ce:48:f2:c5:9f:ee:c1:59:
         ea:8f:d1:8a:d6:c4:83:48:4d:7b:ec:4c:fa:ba:fd:1c:3e:82:
         8b:5f:08:d0:86:54:3f:20:41:f5:8a:5c:da:53:80:ea:28:c3:
         17:22:4c:e7:a7:62:5e:ee:aa:d5:24:14:71:ec:02:5d:6c:ce:
         58:32:46:6a:26:03:36:f3:20:9d:7d:1a:fb:15:a6:24:ac:65:
         06:dc:0c:6d:17:f5:1e:00:d9:50:e2:a2:01:49:1b:32:2f:e7:
         12:06:80:de:c9:fd:d3:36:29:49:fd:96:4a:a3:d3:c2:09:89:
         3f:b2:c0:92:7d:e3:cc:72:5c:82:84:9e:ff:14:3a:2d:5e:88:
         9d:36:ff:c4:69:23:87:d6:07:bf:c8:43:ec:ec:13:d5:bd:c9:
         e3:c1:2d:3b:bf:10:28:fa:63:99:cb:65:54:b6:cd:ff:bd:51:
         0a:a9:43:f8:b0:47:8f:24:c2:3f:a7:48:aa:e8:52:71:8e:5f:
         5e:56:59:b4:36:ff:5b:c5
-----BEGIN CERTIFICATE-----
MIIFFzCCAv+gAwIBAgIFFjRzMGcwDQYJKoZIhvcNAQELBQAwLjELMAkGA1UEBhMC
VVQxDzANBgNVBAoMBlVUT1BJQTEOMAwGA1UEAwwFQ1NDQTQwHhcNMjExMDIwMTIz
MTQ0WhcNMjQxMDE5MTIzMTQ0WjAaMQswCQYDVQQGEwJVVDELMAkGA1UEAwwCQzQw
ggI4MIIBrwYHKoZIzj0CATCCAaICAQEwTAYHKoZIzj0BAQJBAKrdnbjb6cSLP9Tm
rjPJ/AfLMI2zs8nSDtZjnMpwMwhxfU2bAJvGaEKuzaEq5qOA5iiB/y8tgsaFKKpg
Vlg6SPMwgYQEQHgwozGLYDuJ4jJxRawjTMWUy92NPfkWEKg0QcrqmGO8Le1dWqgl
OqEKLvHJi5rItX8RF6cr8se558GsTXf8lMoEQD35FhCoNEHK6phjvC3tXVqoJTqh
Ci7xyYuayLV/ERenK/LHuefBrE13/JTK3Ag+Z5hAULdeuuXdKAm9Y4AW9yMEgYEE
ga7kvdgu2WRaITIunExqk4Xtn3C12RbBtDti7vTQCY7/Ox944tDUjVDRaHuTuX1f
fG1QR0BqXmiLNSIJvLn4In3eOF1WYzLswOq/qc94Iv3yCfcAJKV7GqAAxVuIH4ER
stzeSUpfSF5bykvYiidjrtHKKy+o8FQGeM0eDzrYCJICQQCq3Z242+nEiz/U5q4z
yfwHyzCNs7PJ0g7WY5zKcDMIcFU+XEFMqSYZQYZhGX+sEEcdsdOBCF3a3bWHloKc
qQBpAgEBA4GCAARNwWhNLuPSPR/IuM838rPfhLTB4bvRavfZbnc9nEsRaF4GlAgA
ML1YsHMF9gcBU9LFIcfLTCUmth4f21g+ASBBWmNjPd8tQur7aN/ct49z0KSTx9X8
YwWBj0rHjXoGlbeczIip3IS3veXa4k6UQoDCpyyP3CtlTsoeUoW2y+jpJqM6MDgw
HwYDVR0jBBgwFoAUSkJjf5eHzcoOaXrGd1gbsOe4APwwFQYDVR0lAQH/BAswCQYH
Z4EIAQEOAjANBgkqhkiG9w0BAQsFAAOCAgEAcbkHxVI5WTFLJ9/tCvTYw3iF/SjZ
VLsDHycSNh9pqUjVKBMwPIQYR0SsPYbsEZMfK2uJl8TCIoTkCeRVR4HZeu/9SfJx
ADqrizNjhFOP+CLYTFQOwpzQdVQjzL2F18my6wKrbnbl/lVfHUREZeep0AVGPr9o
lIXVZh9zQsqwZG7aFs3v9By5WIQaS+Tv4CHrDVUdH7EVPs9elk38kPhYliZpOjh+
0SMVrfgYd+f4YE+QSpSzUfceEDzj6LMrXZ1t87HLfReMGyJia1HxXbUPANnERYWG
ODM69HV9vahkY1qzLnK5KyaWWLtBcqFaUBrS9ok/9DwKHhkTOipL4H+H1gUIi2RP
tfW3G4lWvi6zQTTcusCOsZ/9upjOkpQjehHdk2zxFYC3FJf0Ze0f2xmUZYTZuaUx
fhkYkP87hM5I8sWf7sFZ6o/RitbEg0hNe+xM+rr9HD6Ci18I0IZUPyBB9Ypc2lOA
6ijDFyJM56diXu6q1SQUcewCXWzOWDJGaiYDNvMgnX0a+xWmJKxlBtwMbRf1HgDZ
UOKiAUkbMi/nEgaA3sn90zYpSf2WSqPTwgmJP7LAkn3jzHJcgoSe/xQ6LV6InTb/
xGkjh9YHv8hD7OwT1b3J48EtO78QKPpjmctlVLbN/71RCqlD+LBHjyTCP6dIquhS
cY5fXlZZtDb/W8U=
-----END CERTIFICATE-----
