Certificate:
    Data:
        Version: 3 (0x2)
        Serial Number: 95369244773 (0x1634733065)
    Signature Algorithm: sha256WithRSAEncryption
        Issuer: C=UT, O=UTOPIA, CN=CSCA4
        Validity
            Not Before: Oct 20 12:31:29 2021 GMT
            Not After : Oct 19 12:31:29 2024 GMT
        Subject: C=UT, CN=C2
        Subject Public Key Info:
            Public Key Algorithm: id-ecPublicKey
                Public-Key: (256 bit)
                pub: 
                    04:55:cc:9c:32:1c:25:f8:79:0d:33:34:92:24:c7:
                    2b:94:3c:ca:7f:2c:73:05:1e:d0:af:94:20:4d:32:
                    ad:30:25:3e:9f:a6:c0:d6:c7:c6:87:7d:86:f1:d6:
                    07:18:c6:8b:b6:71:da:bc:e1:23:ef:52:b6:56:c7:
                    40:fa:34:40:1d
                Field Type: prime-field
                Prime:
                    00:a9:fb:57:db:a1:ee:a9:bc:3e:66:0a:90:9d:83:
                    8d:72:6e:3b:f6:23:d5:26:20:28:20:13:48:1d:1f:
                    6e:53:77
                A:   
                    7d:5a:09:75:fc:2c:30:57:ee:f6:75:30:41:7a:ff:
                    e7:fb:80:55:c1:26:dc:5c:6c:e9:4a:4b:44:f3:30:
                    b5:d9
                B:   
                    26:dc:5c:6c:e9:4a:4b:44:f3:30:b5:d9:bb:d7:7c:
                    bf:95:84:16:29:5c:f7:e1:ce:6b:cc:dc:18:ff:8c:
                    07:b6
                Generator (uncompressed):
                    04:8b:d2:ae:b9:cb:7e:57:cb:2c:4b:48:2f:fc:81:
                    b7:af:b9:de:27:e1:e3:bd:23:c2:3a:44:53:bd:9a:
                    ce:32:62:54:7e:f8:35:c3:da:c4:fd:97:f8:46:1a:
                    14:61:1d:c9:c2:77:45:13:2d:ed:8e:54:5c:1d:54:
                    c7:2f:04:69:97
                Order: 
                    00:a9:fb:57:db:a1:ee:a9:bc:3e:66:0a:90:9d:83:
                    8d:71:8c:39:7a:a3:b5:61:a6:f7:90:1e:0e:82:97:
                    48:56:a7
                Cofactor:  1 (0x1)
        X509v3 extensions:
            X509v3 Authority Key Identifier: 
                keyid:4A:42:63:7F:97:87:CD:CA:0E:69:7A:C6:77:58:1B:B0:E7:B8:00:FC

            X509v3 Extended Key Usage: critical
                2.23.136.1.1.14.2
    Signature Algorithm: sha256WithRSAEncryption
         4f:39:0e:37:91:68:8c:f0:35:9b:4f:e2:ea:d4:de:55:e4:3c:
         0a:c3:c9:8e:45:2a:e6:a9:34:2a:a4:19:6a:b8:06:fb:07:c7:
         c7:4a:19:84:a0:42:23:e0:d9:a1:a6:03:d5:fd:6b:e7:b0:a1:
         41:0c:0c:18:ac:d1:cb:26:f3:ef:b9:b0:c2:38:30:b9:2f:5a:
         92:f2:74:57:e8:24:6d:8d:e8:cd:58:41:66:b8:92:70:df:ae:
         79:50:ea:18:bf:d2:59:a2:8d:c9:0b:7c:30:ab:30:f4:f1:73:
         20:25:a5:84:ce:de:9f:01:54:e4:fb:66:6d:da:24:3d:76:4c:
         4f:51:71:04:08:71:16:6b:fd:5d:11:6a:d6:ca:c2:72:eb:d8:
         dd:6a:f5:d2:08:81:8c:61:a8:c4:0a:94:fa:4a:5d:99:11:ee:
         98:b9:9a:8f:c4:3f:a9:83:73:d3:19:96:02:86:35:c4:15:8c:
         c2:d8:70:24:61:99:12:c3:08:52:f7:2f:85:87:bd:36:61:5f:
         4d:33:f7:06:c7:1d:ac:86:c7:86:b3:51:f6:37:f3:3f:0b:c2:
         6f:f7:ec:42:52:0b:7e:d9:df:af:91:10:4f:e6:fe:da:04:43:
         d8:20:a3:a0:82:97:94:96:97:c5:05:21:fc:5c:38:98:98:ee:
         48:cc:56:d5:1c:69:e3:5f:f9:ee:d5:e1:8d:3c:e3:78:93:d8:
         f6:53:11:a3:f4:b5:39:49:1a:a1:1c:b8:97:69:6f:7d:46:a0:
         42:aa:59:9a:f2:0e:3a:d6:1c:5c:92:f0:d1:6d:ce:bf:25:fb:
         33:85:7f:8a:0e:cd:83:4d:eb:40:f2:33:6c:b4:98:83:3e:f3:
         6b:5b:02:45:0e:40:66:de:5b:8d:cb:7a:ea:8a:69:da:c7:76:
         cd:c1:e9:d2:ca:8b:98:94:81:55:d7:9a:8a:4f:9e:87:bb:9f:
         51:1d:5f:01:f4:3a:11:19:dc:0f:09:78:be:53:e9:4c:38:a3:
         04:96:e2:15:24:36:63:95:dd:e9:c6:49:92:d6:79:42:93:90:
         bd:38:0f:12:07:f7:a0:2d:a4:66:2d:6f:e5:14:bb:8d:fd:9c:
         39:82:7d:a7:a8:5f:e8:17:31:9e:0f:d3:ba:56:f6:04:d5:44:
         30:d4:20:d2:c0:13:de:48:08:ed:bf:01:9d:44:6f:5e:c0:b4:
         06:00:d4:ca:5b:db:e8:c0:3e:2b:39:80:04:01:b3:87:13:ab:
         19:97:60:0f:9f:4f:a5:48:0d:fe:4b:d8:3b:ee:32:06:60:40:
         46:36:02:4f:cf:68:09:45:7a:76:f3:b2:ef:64:68:47:01:37:
         1f:14:1b:e7:71:0d:4a:61
-----BEGIN CERTIFICATE-----
MIIEEjCCAfqgAwIBAgIFFjRzMGUwDQYJKoZIhvcNAQELBQAwLjELMAkGA1UEBhMC
VVQxDzANBgNVBAoMBlVUT1BJQTEOMAwGA1UEAwwFQ1NDQTQwHhcNMjExMDIwMTIz
MTI5WhcNMjQxMDE5MTIzMTI5WjAaMQswCQYDVQQGEwJVVDELMAkGA1UEAwwCQzIw
ggEzMIHsBgcqhkjOPQIBMIHgAgEBMCwGByqGSM49AQECIQCp+1fboe6pvD5mCpCd
g41ybjv2I9UmICggE0gdH25TdzBEBCB9Wgl1/CwwV+72dTBBev/n+4BVwSbcXGzp
SktE8zC12QQgJtxcbOlKS0TzMLXZu9d8v5WEFilc9+HOa8zcGP+MB7YEQQSL0q65
y35XyyxLSC/8gbevud4n4eO9I8I6RFO9ms4yYlR++DXD2sT9l/hGGhRhHcnCd0UT
Le2OVFwdVMcvBGmXAiEAqftX26Huqbw+ZgqQnYONcYw5eqO1Yab3kB4OgpdIVqcC
AQEDQgAEVcycMhwl+HkNMzSSJMcrlDzKfyxzBR7Qr5QgTTKtMCU+n6bA1sfGh32G
8dYHGMaLtnHavOEj71K2VsdA+jRAHaM6MDgwHwYDVR0jBBgwFoAUSkJjf5eHzcoO
aXrGd1gbsOe4APwwFQYDVR0lAQH/BAswCQYHZ4EIAQEOAjANBgkqhkiG9w0BAQsF
AAOCAgEATzkON5FojPA1m0/i6tTeVeQ8CsPJjkUq5qk0KqQZargG+wfHx0oZhKBC
I+DZoaYD1f1r57ChQQwMGKzRyybz77mwwjgwuS9akvJ0V+gkbY3ozVhBZriScN+u
eVDqGL/SWaKNyQt8MKsw9PFzICWlhM7enwFU5PtmbdokPXZMT1FxBAhxFmv9XRFq
1srCcuvY3Wr10giBjGGoxAqU+kpdmRHumLmaj8Q/qYNz0xmWAoY1xBWMwthwJGGZ
EsMIUvcvhYe9NmFfTTP3BscdrIbHhrNR9jfzPwvCb/fsQlILftnfr5EQT+b+2gRD
2CCjoIKXlJaXxQUh/Fw4mJjuSMxW1Rxp41/57tXhjTzjeJPY9lMRo/S1OUkaoRy4
l2lvfUagQqpZmvIOOtYcXJLw0W3OvyX7M4V/ig7Ng03rQPIzbLSYgz7za1sCRQ5A
Zt5bjct66opp2sd2zcHp0sqLmJSBVdeaik+eh7ufUR1fAfQ6ERncDwl4vlPpTDij
BJbiFSQ2Y5Xd6cZJktZ5QpOQvTgPEgf3oC2kZi1v5RS7jf2cOYJ9p6hf6Bcxng/T
ulb2BNVEMNQg0sAT3kgI7b8BnURvXsC0BgDUylvb6MA+KzmABAGzhxOrGZdgD59P
pUgN/kvYO+4yBmBARjYCT89oCUV6dvOy72RoRwE3HxQb53ENSmE=
-----END CERTIFICATE-----
