Certificate:
    Data:
        Version: 3 (0x2)
        Serial Number: 95369244774 (0x1634733066)
    Signature Algorithm: sha256WithRSAEncryption
        Issuer: C=UT, O=UTOPIA, CN=CSCA4
        Validity
            Not Before: Oct 20 12:31:36 2021 GMT
            Not After : Oct 19 12:31:36 2024 GMT
        Subject: C=UT, CN=C3
        Subject Public Key Info:
            Public Key Algorithm: id-ecPublicKey
                Public-Key: (320 bit)
                pub: 
                    04:20:a5:7d:da:3e:b3:8f:23:48:c3:a4:1d:e4:ae:
                    b5:21:24:6a:5e:7d:76:aa:46:49:d9:98:84:c1:23:
                    e2:e3:7a:ec:5a:e0:70:70:88:31:4e:46:5f:4f:25:
                    97:ae:4d:0c:a1:0b:3e:89:9c:f2:b4:73:dc:31:e8:
                    8d:e6:e3:61:04:a7:96:96:08:e6:ef:08:2f:20:61:
                    7d:65:ba:40:ee:44
                Field Type: prime-field
                Prime:
                    00:d3:5e:47:20:36:bc:4f:b7:e1:3c:78:5e:d2:01:
                    e0:65:f9:8f:cf:a6:f6:f4:0d:ef:4f:92:b9:ec:78:
                    93:ec:28:fc:d4:12:b1:f1:b3:2e:27
                A:   
                    3e:e3:0b:56:8f:ba:b0:f8:83:cc:eb:d4:6d:3f:3b:
                    b8:a2:a7:35:13:f5:eb:79:da:66:19:0e:b0:85:ff:
                    a9:f4:92:f3:75:a9:7d:86:0e:b4
                B:   
                    52:08:83:94:9d:fd:bc:42:d3:ad:19:86:40:68:8a:
                    6f:e1:3f:41:34:95:54:b4:9a:cc:31:dc:cd:88:45:
                    39:81:6f:5e:b4:ac:8f:b1:f1:a6
                Generator (uncompressed):
                    04:43:bd:7e:9a:fb:53:d8:b8:52:89:bc:c4:8e:e5:
                    bf:e6:f2:01:37:d1:0a:08:7e:b6:e7:87:1e:2a:10:
                    a5:99:c7:10:af:8d:0d:39:e2:06:11:14:fd:d0:55:
                    45:ec:1c:c8:ab:40:93:24:7f:77:27:5e:07:43:ff:
                    ed:11:71:82:ea:a9:c7:78:77:aa:ac:6a:c7:d3:52:
                    45:d1:69:2e:8e:e1
                Order: 
                    00:d3:5e:47:20:36:bc:4f:b7:e1:3c:78:5e:d2:01:
                    e0:65:f9:8f:cf:a5:b6:8f:12:a3:2d:48:2e:c7:ee:
                    86:58:e9:86:91:55:5b:44:c5:93:11
                Cofactor:  1 (0x1)
        X509v3 extensions:
            X509v3 Authority Key Identifier: 
                keyid:4A:42:63:7F:97:87:CD:CA:0E:69:7A:C6:77:58:1B:B0:E7:B8:00:FC

            X509v3 Extended Key Usage: critical
                2.23.136.1.1.14.2
    Signature Algorithm: sha256WithRSAEncryption
         00:e2:94:dc:01:40:b9:ab:cc:83:f7:e0:c0:56:6e:95:fc:90:
         00:3e:82:57:c6:3b:ea:59:96:00:ed:54:61:32:f3:77:19:ab:
         d3:f3:d4:8c:e0:b1:e2:14:c3:65:be:21:55:d1:70:00:9f:4e:
         63:dc:55:a8:d7:38:1d:1a:d1:54:cd:28:cd:ca:bc:4b:3f:dc:
         96:96:cc:dc:7b:e7:e3:e2:32:4e:bf:ce:ba:e5:d2:81:9f:16:
         07:6a:b7:48:ee:e5:1d:ca:62:0e:7f:56:64:36:6c:e8:af:00:
         f0:d7:eb:74:3d:2c:2e:9f:ae:0a:d5:38:a5:59:2c:e1:d6:95:
         e9:c8:74:0f:4d:0d:7b:73:a1:70:eb:a0:09:97:e0:71:05:f8:
         ae:69:0c:61:e2:be:2e:a9:2b:61:be:a2:65:56:bc:70:0f:2c:
         9f:17:d4:b7:7c:6e:f0:6d:b1:20:ce:78:fc:e9:4b:7d:59:34:
         4e:c6:c3:34:0f:e0:5b:ec:dc:6c:39:d5:4b:ca:42:b9:dc:86:
         4d:9b:44:7c:02:49:07:93:0d:6e:30:6a:09:ef:b0:e8:df:e9:
         78:1a:2a:c6:2f:3b:31:df:3f:1c:81:76:45:4e:d9:c0:fc:e9:
         d1:72:c0:ae:3f:1c:52:82:dd:76:d8:4d:02:76:d2:14:d6:e7:
         94:6b:0b:63:a3:37:91:c9:46:8f:12:ae:30:e6:0b:93:c9:3f:
         58:d0:a9:db:6f:b7:90:0b:35:bf:5f:d6:16:0a:62:42:6e:07:
         ab:85:7a:7c:b8:16:81:ce:df:8f:cc:fd:b9:20:34:66:5b:51:
         7f:ce:fb:8f:66:7b:d0:19:26:72:ee:e2:bf:6d:ad:ab:22:87:
         07:b8:f4:a2:6b:e0:f1:80:17:df:fd:2d:db:5e:09:30:bf:d7:
         6e:5c:7f:c8:ad:af:3c:2d:b1:4d:44:5b:90:39:c8:74:cc:4d:
         5d:49:96:a0:81:3d:77:cd:23:34:08:1d:a0:bb:0c:6f:90:f6:
         a0:13:d1:1e:16:7a:1e:6e:30:af:d2:ab:ea:a0:6c:76:fa:8d:
         83:83:3f:68:bb:e8:e2:86:b5:a2:da:07:f0:02:6b:67:71:5e:
         fc:c2:d7:fc:6b:69:ea:07:73:b8:8e:0d:01:09:c2:97:7c:c4:
         bb:fe:79:df:f9:5e:17:d7:20:f3:e2:b1:71:46:5b:a9:a9:20:
         82:68:3d:a4:3f:6e:5c:ea:4b:6e:5d:7e:2d:8d:cf:65:7f:8f:
         50:75:06:97:22:1d:58:d8:a7:2a:1c:12:33:c0:06:19:5d:4b:
         9c:c7:f0:f4:21:a3:2d:42:1e:a4:ac:13:34:9f:7f:73:e5:2a:
         15:d2:b2:f5:18:78:dd:af
-----BEGIN CERTIFICATE-----
MIIEVDCCAjygAwIBAgIFFjRzMGYwDQYJKoZIhvcNAQELBQAwLjELMAkGA1UEBhMC
VVQxDzANBgNVBAoMBlVUT1BJQTEOMAwGA1UEAwwFQ1NDQTQwHhcNMjExMDIwMTIz
MTM2WhcNMjQxMDE5MTIzMTM2WjAaMQswCQYDVQQGEwJVVDELMAkGA1UEAwwCQzMw
ggF1MIIBHQYHKoZIzj0CATCCARACAQEwNAYHKoZIzj0BAQIpANNeRyA2vE+34Tx4
XtIB4GX5j8+m9vQN70+Suex4k+wo/NQSsfGzLicwVAQoPuMLVo+6sPiDzOvUbT87
uKKnNRP163naZhkOsIX/qfSS83WpfYYOtAQoUgiDlJ39vELTrRmGQGiKb+E/QTSV
VLSazDHczYhFOYFvXrSsj7HxpgRRBEO9fpr7U9i4Uom8xI7lv+byATfRCgh+tueH
HioQpZnHEK+NDTniBhEU/dBVRewcyKtAkyR/dydeB0P/7RFxguqpx3h3qqxqx9NS
RdFpLo7hAikA015HIDa8T7fhPHhe0gHgZfmPz6W2jxKjLUgux+6GWOmGkVVbRMWT
EQIBAQNSAAQgpX3aPrOPI0jDpB3krrUhJGpefXaqRknZmITBI+Ljeuxa4HBwiDFO
Rl9PJZeuTQyhCz6JnPK0c9wx6I3m42EEp5aWCObvCC8gYX1lukDuRKM6MDgwHwYD
VR0jBBgwFoAUSkJjf5eHzcoOaXrGd1gbsOe4APwwFQYDVR0lAQH/BAswCQYHZ4EI
AQEOAjANBgkqhkiG9w0BAQsFAAOCAgEAAOKU3AFAuavMg/fgwFZulfyQAD6CV8Y7
6lmWAO1UYTLzdxmr0/PUjOCx4hTDZb4hVdFwAJ9OY9xVqNc4HRrRVM0ozcq8Sz/c
lpbM3Hvn4+IyTr/OuuXSgZ8WB2q3SO7lHcpiDn9WZDZs6K8A8NfrdD0sLp+uCtU4
pVks4daV6ch0D00Ne3OhcOugCZfgcQX4rmkMYeK+LqkrYb6iZVa8cA8snxfUt3xu
8G2xIM54/OlLfVk0TsbDNA/gW+zcbDnVS8pCudyGTZtEfAJJB5MNbjBqCe+w6N/p
eBoqxi87Md8/HIF2RU7ZwPzp0XLArj8cUoLddthNAnbSFNbnlGsLY6M3kclGjxKu
MOYLk8k/WNCp22+3kAs1v1/WFgpiQm4Hq4V6fLgWgc7fj8z9uSA0ZltRf877j2Z7
0Bkmcu7iv22tqyKHB7j0omvg8YAX3/0t214JML/Xblx/yK2vPC2xTURbkDnIdMxN
XUmWoIE9d80jNAgdoLsMb5D2oBPRHhZ6Hm4wr9Kr6qBsdvqNg4M/aLvo4oa1otoH
8AJrZ3Fe/MLX/Gtp6gdzuI4NAQnCl3zEu/553/leF9cg8+KxcUZbqakggmg9pD9u
XOpLbl1+LY3PZX+PUHUGlyIdWNinKhwSM8AGGV1LnMfw9CGjLUIepKwTNJ9/c+Uq
FdKy9Rh43a8=
-----END CERTIFICATE-----
