Certificate:
    Data:
        Version: 3 (0x2)
        Serial Number: 2284534163204162341 (0x1fb44bb7ab074325)
    Signature Algorithm: sha256WithRSAEncryption
        Issuer: C=UT, O=UTOPIA, CN=CSCA8
        Validity
            Not Before: Oct 20 12:39:58 2021 GMT
            Not After : Oct 19 12:39:58 2024 GMT
        Subject: C=UT, CN=D1
        Subject Public Key Info:
            Public Key Algorithm: id-ecPublicKey
                Public-Key: (224 bit)
                pub: 
                    04:94:f0:a6:7a:70:f5:a0:7a:c2:3f:f5:a4:ca:ba:
                    5a:78:43:df:91:86:95:29:45:d8:6a:25:39:b9:20:
                    33:df:d8:9c:5d:f0:99:b1:5f:9b:c2:cd:ed:44:16:
                    12:3e:21:e0:fa:40:df:1a:bd:dc:cf:6f
                Field Type: prime-field
                Prime:
                    00:d7:c1:34:aa:26:43:66:86:2a:18:30:25:75:d1:
                    d7:87:b0:9f:07:57:97:da:89:f5:7e:c8:c0:ff
                A:   
                    68:a5:e6:2c:a9:ce:6c:1c:29:98:03:a6:c1:53:0b:
                    51:4e:18:2a:d8:b0:04:2a:59:ca:d2:9f:43
                B:   
                    25:80:f6:3c:cf:e4:41:38:87:07:13:b1:a9:23:69:
                    e3:3e:21:35:d2:66:db:b3:72:38:6c:40:0b
                Generator (uncompressed):
                    04:0d:90:29:ad:2c:7e:5c:f4:34:08:23:b2:a8:7d:
                    c6:8c:9e:4c:e3:17:4c:1e:6e:fd:ee:12:c0:7d:58:
                    aa:56:f7:72:c0:72:6f:24:c6:b8:9e:4e:cd:ac:24:
                    35:4b:9e:99:ca:a3:f6:d3:76:14:02:cd
                Order: 
                    00:d7:c1:34:aa:26:43:66:86:2a:18:30:25:75:d0:
                    fb:98:d1:16:bc:4b:6d:de:bc:a3:a5:a7:93:9f
                Cofactor:  1 (0x1)
        X509v3 extensions:
            X509v3 Authority Key Identifier: 
                keyid:89:4B:94:98:8B:7C:88:E6:2B:E8:72:64:92:CA:65:41:A6:A7:62:57

            X509v3 Extended Key Usage: critical
                2.23.136.1.1.14.2
    Signature Algorithm: sha256WithRSAEncryption
         9c:3c:b4:67:a9:66:82:97:f8:5b:80:2c:6d:a3:5d:5f:4f:ac:
         c3:37:fe:3d:7f:0a:ee:4d:12:88:ee:0e:b4:2d:f6:63:bd:43:
         91:50:a3:7b:6b:88:f4:af:67:b9:ba:67:15:2d:0f:4e:6e:0d:
         23:f3:d4:f6:46:23:d3:c3:79:58:9a:f6:68:b4:f5:5e:21:3d:
         6f:c5:68:0b:cb:e2:17:f3:dc:3d:b1:c2:52:84:ae:fd:40:f3:
         6d:f8:75:cb:01:96:80:af:b7:7c:44:eb:6d:a6:d9:4b:0c:ae:
         d9:e9:7c:0d:49:83:b2:2d:4c:55:6a:a5:b4:42:c8:a5:e9:4b:
         ac:65:1a:d1:01:7e:f5:32:7f:1e:18:f9:3f:0e:a0:69:ba:55:
         46:3f:63:31:30:35:22:86:26:7f:d2:5b:8f:cb:43:7e:a1:9a:
         1b:84:4f:fa:3b:09:3e:00:c3:b5:39:48:c2:3b:45:1e:f5:76:
         7b:c1:96:43:7a:e1:cb:45:c3:95:b4:32:88:95:ee:93:3b:59:
         bf:a9:17:a5:e8:5c:a5:39:b9:8e:11:4e:b5:f3:ab:b0:68:13:
         c8:3a:71:19:4b:f5:be:5c:6b:d3:7d:27:8b:53:2c:62:ba:18:
         6e:54:8f:83:97:9e:b1:dd:ae:e9:9f:b4:a6:65:f6:f8:22:25:
         81:82:48:27:dd:52:c5:b5:ec:79:01:85:c7:c4:23:96:11:dd:
         e7:ff:61:04:ae:d3:ea:fc:62:ae:d3:b6:5c:55:c1:35:15:94:
         de:b6:d6:34:fb:1b:7d:a9:b7:00:85:8e:7f:8b:c3:02:3a:15:
         52:7c:49:96:3c:95:56:42:7d:eb:6b:a3:9e:cd:3f:9d:17:36:
         04:69:2a:a0:9c:96:48:2e:32:61:15:12:62:95:df:04:b2:92:
         a8:9c:97:3b:f0:61:b8:4e:58:1f:57:e3:c2:cd:ba:5a:ee:24:
         f1:fe:1b:51:26:57:93:81:18:a1:f2:c4:a2:11:73:d0:18:73:
         5f:1d:43:34:41:5c:36:eb:8c:93:a4:32:80:7a:9f:b2:eb:08:
         2f:ac:1e:f2:f1:1f:57:63:e4:8b:70:f8:f6:44:1d:b2:74:0f:
         8a:7d:de:e4:1b:97:5a:93:54:68:e5:ce:a3:3f:24:3b:04:b9:
         28:1a:1c:0e:33:43:a2:66:be:01:0b:17:57:02:6f:58:ef:97:
         bf:46:ed:10:52:f4:66:4f:37:56:b7:d1:f4:3b:38:8c:f5:70:
         a3:7a:e2:b0:93:e0:55:4c:3a:37:b3:16:72:e5:d9:dc:4c:1f:
         d3:f2:ff:de:60:3f:06:08:a4:e7:b6:ff:7a:e4:a2:b3:3d:df:
         92:16:fc:e2:bd:27:ec:20
-----BEGIN CERTIFICATE-----
MIID9TCCAd2gAwIBAgIIH7RLt6sHQyUwDQYJKoZIhvcNAQELBQAwLjELMAkGA1UE
BhMCVVQxDzANBgNVBAoMBlVUT1BJQTEOMAwGA1UEAwwFQ1NDQTgwHhcNMjExMDIw
MTIzOTU4WhcNMjQxMDE5MTIzOTU4WjAaMQswCQYDVQQGEwJVVDELMAkGA1UEAwwC
RDEwggETMIHUBgcqhkjOPQIBMIHIAgEBMCgGByqGSM49AQECHQDXwTSqJkNmhioY
MCV10deHsJ8HV5faifV+yMD/MDwEHGil5iypzmwcKZgDpsFTC1FOGCrYsAQqWcrS
n0MEHCWA9jzP5EE4hwcTsakjaeM+ITXSZtuzcjhsQAsEOQQNkCmtLH5c9DQII7Ko
fcaMnkzjF0webv3uEsB9WKpW93LAcm8kxrieTs2sJDVLnpnKo/bTdhQCzQIdANfB
NKomQ2aGKhgwJXXQ+5jRFrxLbd68o6Wnk58CAQEDOgAElPCmenD1oHrCP/Wkyrpa
eEPfkYaVKUXYaiU5uSAz39icXfCZsV+bws3tRBYSPiHg+kDfGr3cz2+jOjA4MB8G
A1UdIwQYMBaAFIlLlJiLfIjmK+hyZJLKZUGmp2JXMBUGA1UdJQEB/wQLMAkGB2eB
CAEBDgIwDQYJKoZIhvcNAQELBQADggIBAJw8tGepZoKX+FuALG2jXV9PrMM3/j1/
Cu5NEojuDrQt9mO9Q5FQo3triPSvZ7m6ZxUtD05uDSPz1PZGI9PDeVia9mi09V4h
PW/FaAvL4hfz3D2xwlKErv1A8234dcsBloCvt3xE622m2UsMrtnpfA1Jg7ItTFVq
pbRCyKXpS6xlGtEBfvUyfx4Y+T8OoGm6VUY/YzEwNSKGJn/SW4/LQ36hmhuET/o7
CT4Aw7U5SMI7RR71dnvBlkN64ctFw5W0MoiV7pM7Wb+pF6XoXKU5uY4RTrXzq7Bo
E8g6cRlL9b5ca9N9J4tTLGK6GG5Uj4OXnrHdrumftKZl9vgiJYGCSCfdUsW17HkB
hcfEI5YR3ef/YQSu0+r8Yq7TtlxVwTUVlN621jT7G32ptwCFjn+LwwI6FVJ8SZY8
lVZCfetro57NP50XNgRpKqCclkguMmEVEmKV3wSykqiclzvwYbhOWB9X48LNulru
JPH+G1EmV5OBGKHyxKIRc9AYc18dQzRBXDbrjJOkMoB6n7LrCC+sHvLxH1dj5Itw
+PZEHbJ0D4p93uQbl1qTVGjlzqM/JDsEuSgaHA4zQ6JmvgELF1cCb1jvl79G7RBS
9GZPN1a30fQ7OIz1cKN64rCT4FVMOjezFnLl2dxMH9Py/95gPwYIpOe2/3rkorM9
35IW/OK9J+wg
-----END CERTIFICATE-----
