Certificate:
    Data:
        Version: 3 (0x2)
        Serial Number:
            01:e3:5b:c4:14:a8:b6:12:50:b5:dd:15:96:18:3c:32
    Signature Algorithm: sha256WithRSAEncryption
        Issuer: C=UT, O=UTOPIA, CN=CSCA16
        Validity
            Not Before: Oct 20 12:46:32 2021 GMT
            Not After : Oct 19 12:46:32 2024 GMT
        Subject: C=UT, CN=E2
        Subject Public Key Info:
            Public Key Algorithm: id-ecPublicKey
                Public-Key: (256 bit)
                pub: 
                    04:87:5c:64:f2:7d:ff:d3:32:6e:fe:18:79:8b:26:
                    c8:b3:ef:98:50:f3:ff:8c:06:fb:34:df:ce:c6:fa:
                    b1:13:f5:04:21:d0:ee:c2:f4:5a:31:24:4a:1e:50:
                    be:df:0b:4c:d5:79:87:e9:97:82:ac:2a:fc:73:d6:
                    f4:60:eb:7b:31
                Field Type: prime-field
                Prime:
                    00:a9:fb:57:db:a1:ee:a9:bc:3e:66:0a:90:9d:83:
                    8d:72:6e:3b:f6:23:d5:26:20:28:20:13:48:1d:1f:
                    6e:53:77
                A:   
                    7d:5a:09:75:fc:2c:30:57:ee:f6:75:30:41:7a:ff:
                    e7:fb:80:55:c1:26:dc:5c:6c:e9:4a:4b:44:f3:30:
                    b5:d9
                B:   
                    26:dc:5c:6c:e9:4a:4b:44:f3:30:b5:d9:bb:d7:7c:
                    bf:95:84:16:29:5c:f7:e1:ce:6b:cc:dc:18:ff:8c:
                    07:b6
                Generator (uncompressed):
                    04:8b:d2:ae:b9:cb:7e:57:cb:2c:4b:48:2f:fc:81:
                    b7:af:b9:de:27:e1:e3:bd:23:c2:3a:44:53:bd:9a:
                    ce:32:62:54:7e:f8:35:c3:da:c4:fd:97:f8:46:1a:
                    14:61:1d:c9:c2:77:45:13:2d:ed:8e:54:5c:1d:54:
                    c7:2f:04:69:97
                Order: 
                    00:a9:fb:57:db:a1:ee:a9:bc:3e:66:0a:90:9d:83:
                    8d:71:8c:39:7a:a3:b5:61:a6:f7:90:1e:0e:82:97:
                    48:56:a7
                Cofactor:  1 (0x1)
        X509v3 extensions:
            X509v3 Authority Key Identifier: 
                keyid:76:2D:44:3A:35:8D:87:EC:C1:FB:94:5D:42:94:44:65:13:47:CB:1C

            X509v3 Extended Key Usage: critical
                2.23.136.1.1.14.2
    Signature Algorithm: sha256WithRSAEncryption
         6c:87:73:af:d3:e6:98:96:5a:85:30:31:df:7e:9d:f8:fc:9c:
         31:a4:81:a4:bb:f5:6c:fa:da:e1:e9:b2:7b:bb:b1:30:f4:c9:
         b9:0a:cb:a1:65:f7:c2:40:57:ea:86:90:dd:c4:0b:58:40:4b:
         66:35:52:97:88:5c:f1:7d:ad:6a:53:db:fb:e9:d9:19:a5:b9:
         d6:2a:b3:5e:54:ad:c5:39:97:76:02:1d:9e:cc:f8:7b:d1:76:
         a5:4f:cf:b6:b0:f3:92:5f:4b:52:5c:e2:6d:f2:5c:ca:4c:89:
         27:c3:d5:15:f6:3f:58:01:1b:2c:fe:df:69:f3:b6:7b:58:26:
         73:82:b0:ba:00:9e:4e:0d:f7:f6:b0:42:54:dd:a0:9c:bd:8e:
         1d:4e:a2:98:bc:25:15:b2:5a:b0:db:d6:ab:a2:a7:61:60:0d:
         47:c0:63:e1:30:28:27:f7:ac:f8:a4:07:54:32:db:6a:af:45:
         a9:de:16:c6:c9:b8:94:72:db:ae:9f:14:71:8b:40:63:75:2b:
         d1:fa:c9:9c:3f:b8:9b:39:ea:1e:e4:b1:46:c5:67:b0:b4:97:
         58:49:f2:c2:e3:e9:52:df:77:85:70:65:b2:9e:38:a5:75:b3:
         05:dc:ec:07:72:0b:aa:c9:70:c9:0a:8e:66:17:39:73:30:8d:
         70:55:19:4c:d7:7e:3c:3e:4f:bc:5e:51:1b:eb:93:76:37:95:
         db:63:c1:d3:3b:f0:1d:c6:2c:08:3a:e3:86:42:88:b5:e4:2d:
         69:59:6f:00:33:20:74:db:92:a6:29:cf:96:40:bd:3f:7a:f5:
         c8:1e:76:9b:7a:8d:c3:4f:e4:e8:00:bd:c3:fe:b7:dc:58:65:
         6a:fb:59:6d:29:15:67:84:09:2a:62:ad:4d:6a:27:51:ce:c1:
         07:ee:ac:5a:70:87:83:bb:d7:69:2a:1f:23:d1:25:20:aa:4e:
         af:b5:fd:5d:b1:06:8e:d7:b9:2b:41:3e:3e:6a:9b:32:99:0d:
         d8:51:fd:0f:23:e1:de:e6:16:5a:37:d1:0a:08:1c:98:70:b8:
         40:55:01:f6:51:45:00:83:90:1c:71:6c:45:51:7f:ad:9f:b4:
         cc:45:c4:86:bc:95:43:d9:30:b9:f7:cb:e5:37:35:75:0d:d2:
         36:80:38:2b:b7:e2:47:3f:c1:87:80:de:95:d0:26:14:72:e0:
         75:44:54:a5:25:8b:8a:19:49:f4:95:60:8b:45:33:b1:5b:bc:
         98:62:87:8b:ff:68:0d:7b:1e:ac:6e:0a:30:48:23:81:16:9a:
         15:62:b5:c0:34:b7:72:83:26:2d:9d:26:ca:aa:62:c1:55:e0:
         73:4f:62:74:67:92:b6:34
-----BEGIN CERTIFICATE-----
MIIEHjCCAgagAwIBAgIQAeNbxBSothJQtd0Vlhg8MjANBgkqhkiG9w0BAQsFADAv
MQswCQYDVQQGEwJVVDEPMA0GA1UECgwGVVRPUElBMQ8wDQYDVQQDDAZDU0NBMTYw
HhcNMjExMDIwMTI0NjMyWhcNMjQxMDE5MTI0NjMyWjAaMQswCQYDVQQGEwJVVDEL
MAkGA1UEAwwCRTIwggEzMIHsBgcqhkjOPQIBMIHgAgEBMCwGByqGSM49AQECIQCp
+1fboe6pvD5mCpCdg41ybjv2I9UmICggE0gdH25TdzBEBCB9Wgl1/CwwV+72dTBB
ev/n+4BVwSbcXGzpSktE8zC12QQgJtxcbOlKS0TzMLXZu9d8v5WEFilc9+HOa8zc
GP+MB7YEQQSL0q65y35XyyxLSC/8gbevud4n4eO9I8I6RFO9ms4yYlR++DXD2sT9
l/hGGhRhHcnCd0UTLe2OVFwdVMcvBGmXAiEAqftX26Huqbw+ZgqQnYONcYw5eqO1
Yab3kB4OgpdIVqcCAQEDQgAEh1xk8n3/0zJu/hh5iybIs++YUPP/jAb7NN/Oxvqx
E/UEIdDuwvRaMSRKHlC+3wtM1XmH6ZeCrCr8c9b0YOt7MaM6MDgwHwYDVR0jBBgw
FoAUdi1EOjWNh+zB+5RdQpREZRNHyxwwFQYDVR0lAQH/BAswCQYHZ4EIAQEOAjAN
BgkqhkiG9w0BAQsFAAOCAgEAbIdzr9PmmJZahTAx336d+PycMaSBpLv1bPra4emy
e7uxMPTJuQrLoWX3wkBX6oaQ3cQLWEBLZjVSl4hc8X2talPb++nZGaW51iqzXlSt
xTmXdgIdnsz4e9F2pU/PtrDzkl9LUlzibfJcykyJJ8PVFfY/WAEbLP7fafO2e1gm
c4KwugCeTg339rBCVN2gnL2OHU6imLwlFbJasNvWq6KnYWANR8Bj4TAoJ/es+KQH
VDLbaq9Fqd4Wxsm4lHLbrp8UcYtAY3Ur0frJnD+4mznqHuSxRsVnsLSXWEnywuPp
Ut93hXBlsp44pXWzBdzsB3ILqslwyQqOZhc5czCNcFUZTNd+PD5PvF5RG+uTdjeV
22PB0zvwHcYsCDrjhkKIteQtaVlvADMgdNuSpinPlkC9P3r1yB52m3qNw0/k6AC9
w/633FhlavtZbSkVZ4QJKmKtTWonUc7BB+6sWnCHg7vXaSofI9ElIKpOr7X9XbEG
jte5K0E+PmqbMpkN2FH9DyPh3uYWWjfRCggcmHC4QFUB9lFFAIOQHHFsRVF/rZ+0
zEXEhryVQ9kwuffL5Tc1dQ3SNoA4K7fiRz/Bh4DeldAmFHLgdURUpSWLihlJ9JVg
i0UzsVu8mGKHi/9oDXserG4KMEgjgRaaFWK1wDS3coMmLZ0myqpiwVXgc09idGeS
tjQ=
-----END CERTIFICATE-----
