Certificate:
    Data:
        Version: 3 (0x2)
        Serial Number:
            01:e3:5b:c4:14:a8:b6:12:50:b5:dd:15:96:18:3c:34
    Signature Algorithm: sha256WithRSAEncryption
        Issuer: C=UT, O=UTOPIA, CN=CSCA16
        Validity
            Not Before: Oct 20 12:46:46 2021 GMT
            Not After : Oct 19 12:46:46 2024 GMT
        Subject: C=UT, CN=E4
        Subject Public Key Info:
            Public Key Algorithm: id-ecPublicKey
                Public-Key: (512 bit)
                pub: 
                    04:12:63:99:a9:a5:42:88:1e:7c:1f:c4:c5:53:52:
                    f4:36:5d:7f:51:39:bb:42:24:72:c1:6b:74:b1:b2:
                    f3:62:33:2e:e8:78:6b:aa:7f:3b:1e:b1:2b:6a:d8:
                    43:7b:d1:79:15:f8:81:80:19:ab:f3:b0:89:85:14:
                    73:7c:0e:49:7a:6c:6d:12:a6:b2:87:43:5e:80:aa:
                    83:2c:b6:fd:84:34:fb:4c:a8:b5:a3:5d:02:fc:0d:
                    59:5d:0f:2e:de:5d:71:42:13:b0:0f:ca:2e:77:70:
                    f4:45:c7:f3:69:4c:b3:3e:d4:95:8b:4a:05:bf:27:
                    5e:2e:55:0a:8b:cc:e8:0d:0e
                Field Type: prime-field
                Prime:
                    00:aa:dd:9d:b8:db:e9:c4:8b:3f:d4:e6:ae:33:c9:
                    fc:07:cb:30:8d:b3:b3:c9:d2:0e:d6:63:9c:ca:70:
                    33:08:71:7d:4d:9b:00:9b:c6:68:42:ae:cd:a1:2a:
                    e6:a3:80:e6:28:81:ff:2f:2d:82:c6:85:28:aa:60:
                    56:58:3a:48:f3
                A:   
                    78:30:a3:31:8b:60:3b:89:e2:32:71:45:ac:23:4c:
                    c5:94:cb:dd:8d:3d:f9:16:10:a8:34:41:ca:ea:98:
                    63:bc:2d:ed:5d:5a:a8:25:3a:a1:0a:2e:f1:c9:8b:
                    9a:c8:b5:7f:11:17:a7:2b:f2:c7:b9:e7:c1:ac:4d:
                    77:fc:94:ca
                B:   
                    3d:f9:16:10:a8:34:41:ca:ea:98:63:bc:2d:ed:5d:
                    5a:a8:25:3a:a1:0a:2e:f1:c9:8b:9a:c8:b5:7f:11:
                    17:a7:2b:f2:c7:b9:e7:c1:ac:4d:77:fc:94:ca:dc:
                    08:3e:67:98:40:50:b7:5e:ba:e5:dd:28:09:bd:63:
                    80:16:f7:23
                Generator (uncompressed):
                    04:81:ae:e4:bd:d8:2e:d9:64:5a:21:32:2e:9c:4c:
                    6a:93:85:ed:9f:70:b5:d9:16:c1:b4:3b:62:ee:f4:
                    d0:09:8e:ff:3b:1f:78:e2:d0:d4:8d:50:d1:68:7b:
                    93:b9:7d:5f:7c:6d:50:47:40:6a:5e:68:8b:35:22:
                    09:bc:b9:f8:22:7d:de:38:5d:56:63:32:ec:c0:ea:
                    bf:a9:cf:78:22:fd:f2:09:f7:00:24:a5:7b:1a:a0:
                    00:c5:5b:88:1f:81:11:b2:dc:de:49:4a:5f:48:5e:
                    5b:ca:4b:d8:8a:27:63:ae:d1:ca:2b:2f:a8:f0:54:
                    06:78:cd:1e:0f:3a:d8:08:92
                Order: 
                    00:aa:dd:9d:b8:db:e9:c4:8b:3f:d4:e6:ae:33:c9:
                    fc:07:cb:30:8d:b3:b3:c9:d2:0e:d6:63:9c:ca:70:
                    33:08:70:55:3e:5c:41:4c:a9:26:19:41:86:61:19:
                    7f:ac:10:47:1d:b1:d3:81:08:5d:da:dd:b5:87:96:
                    82:9c:a9:00:69
                Cofactor:  1 (0x1)
        X509v3 extensions:
            X509v3 Authority Key Identifier: 
                keyid:76:2D:44:3A:35:8D:87:EC:C1:FB:94:5D:42:94:44:65:13:47:CB:1C

            X509v3 Extended Key Usage: critical
                2.23.136.1.1.14.2
    Signature Algorithm: sha256WithRSAEncryption
         80:00:e9:37:7e:91:fe:e9:ff:40:7c:76:3b:05:0d:11:0c:24:
         2e:3d:0b:91:77:3d:85:5b:fd:bd:f2:5e:dc:e8:4c:c6:6d:f7:
         3e:15:84:c3:9c:73:4c:b8:d3:f9:7c:d8:7b:06:53:b5:b6:14:
         af:f5:4b:a8:13:c2:2a:1d:52:38:e3:dd:2e:5c:78:63:16:2f:
         55:92:fd:a8:43:99:f4:03:8a:ea:64:06:24:f9:00:da:af:35:
         1d:5c:62:78:9b:7c:31:66:e9:5b:0f:10:d5:4b:d1:6e:68:0b:
         c9:6c:e4:1d:d8:0b:28:72:98:27:d5:97:8a:90:1d:5f:cb:f6:
         b0:01:4c:ba:c9:7f:9a:34:d1:27:ae:5b:0a:1e:01:c8:76:66:
         07:d9:bb:d3:f4:79:96:d1:3f:17:e6:82:40:f8:60:55:69:91:
         5d:b9:30:9e:c8:14:fc:34:6d:93:82:35:1e:f2:44:b5:05:2d:
         c4:27:f7:bb:70:54:87:39:cf:60:dd:f3:bf:e7:7f:01:26:55:
         32:29:0a:50:1e:c1:f0:ad:eb:2b:74:67:c3:74:40:8b:62:51:
         55:a4:7f:eb:f6:e8:e2:12:c5:02:8f:14:cc:e8:e9:f6:19:b9:
         21:8a:ac:f6:d3:2a:7e:f9:79:05:1f:ee:89:30:5e:15:db:67:
         de:c5:4b:db:ef:90:17:94:67:9a:f8:b8:37:fb:e6:8a:f0:56:
         40:5f:78:0b:cf:0d:54:87:0e:98:a2:3a:5c:58:ad:85:8c:8b:
         f1:5f:b5:ba:6e:ef:c6:6c:4c:24:90:e6:ad:d5:03:cc:b7:b5:
         ec:ff:f7:1b:b9:9c:23:d6:9d:b7:86:1c:ee:4b:5c:1f:f4:71:
         b0:e1:af:9c:1a:65:37:59:a2:8c:c1:34:dd:41:49:27:32:f7:
         96:5b:95:e2:34:ca:ec:77:50:76:03:b0:d8:eb:90:23:49:2f:
         9d:06:17:2c:ba:44:c1:5f:0a:0f:79:25:f1:04:11:f8:52:ee:
         5d:fa:2b:d8:c5:78:02:82:12:12:a4:59:87:2c:b8:14:36:1b:
         0a:0f:c4:08:14:04:74:af:9b:62:37:96:3f:a9:82:32:76:b2:
         c2:ff:f7:fa:1c:eb:72:71:ca:37:df:a6:86:b0:0c:72:25:5f:
         ba:dd:54:f0:6b:f8:7d:2a:e6:e8:8d:2c:10:5d:d7:23:d3:ec:
         24:e2:fb:da:87:9d:61:b0:8b:79:8c:90:0c:17:1a:f9:f2:bb:
         db:b7:2f:9f:4b:7e:f3:c3:a5:28:fd:10:ae:92:04:83:49:c8:
         76:2a:ab:9c:da:ec:72:73:3c:dc:03:2b:10:a6:54:ce:66:00:
         0c:4c:56:b2:90:5f:81:cf
-----BEGIN CERTIFICATE-----
MIIFIzCCAwugAwIBAgIQAeNbxBSothJQtd0Vlhg8NDANBgkqhkiG9w0BAQsFADAv
MQswCQYDVQQGEwJVVDEPMA0GA1UECgwGVVRPUElBMQ8wDQYDVQQDDAZDU0NBMTYw
HhcNMjExMDIwMTI0NjQ2WhcNMjQxMDE5MTI0NjQ2WjAaMQswCQYDVQQGEwJVVDEL
MAkGA1UEAwwCRTQwggI4MIIBrwYHKoZIzj0CATCCAaICAQEwTAYHKoZIzj0BAQJB
AKrdnbjb6cSLP9TmrjPJ/AfLMI2zs8nSDtZjnMpwMwhxfU2bAJvGaEKuzaEq5qOA
5iiB/y8tgsaFKKpgVlg6SPMwgYQEQHgwozGLYDuJ4jJxRawjTMWUy92NPfkWEKg0
QcrqmGO8Le1dWqglOqEKLvHJi5rItX8RF6cr8se558GsTXf8lMoEQD35FhCoNEHK
6phjvC3tXVqoJTqhCi7xyYuayLV/ERenK/LHuefBrE13/JTK3Ag+Z5hAULdeuuXd
KAm9Y4AW9yMEgYEEga7kvdgu2WRaITIunExqk4Xtn3C12RbBtDti7vTQCY7/Ox94
4tDUjVDRaHuTuX1ffG1QR0BqXmiLNSIJvLn4In3eOF1WYzLswOq/qc94Iv3yCfcA
JKV7GqAAxVuIH4ERstzeSUpfSF5bykvYiidjrtHKKy+o8FQGeM0eDzrYCJICQQCq
3Z242+nEiz/U5q4zyfwHyzCNs7PJ0g7WY5zKcDMIcFU+XEFMqSYZQYZhGX+sEEcd
sdOBCF3a3bWHloKcqQBpAgEBA4GCAAQSY5mppUKIHnwfxMVTUvQ2XX9RObtCJHLB
a3SxsvNiMy7oeGuqfzsesStq2EN70XkV+IGAGavzsImFFHN8Dkl6bG0SprKHQ16A
qoMstv2ENPtMqLWjXQL8DVldDy7eXXFCE7APyi53cPRFx/NpTLM+1JWLSgW/J14u
VQqLzOgNDqM6MDgwHwYDVR0jBBgwFoAUdi1EOjWNh+zB+5RdQpREZRNHyxwwFQYD
VR0lAQH/BAswCQYHZ4EIAQEOAjANBgkqhkiG9w0BAQsFAAOCAgEAgADpN36R/un/
QHx2OwUNEQwkLj0LkXc9hVv9vfJe3OhMxm33PhWEw5xzTLjT+XzYewZTtbYUr/VL
qBPCKh1SOOPdLlx4YxYvVZL9qEOZ9AOK6mQGJPkA2q81HVxieJt8MWbpWw8Q1UvR
bmgLyWzkHdgLKHKYJ9WXipAdX8v2sAFMusl/mjTRJ65bCh4ByHZmB9m70/R5ltE/
F+aCQPhgVWmRXbkwnsgU/DRtk4I1HvJEtQUtxCf3u3BUhznPYN3zv+d/ASZVMikK
UB7B8K3rK3Rnw3RAi2JRVaR/6/bo4hLFAo8UzOjp9hm5IYqs9tMqfvl5BR/uiTBe
Fdtn3sVL2++QF5Rnmvi4N/vmivBWQF94C88NVIcOmKI6XFithYyL8V+1um7vxmxM
JJDmrdUDzLe17P/3G7mcI9adt4Yc7ktcH/RxsOGvnBplN1mijME03UFJJzL3lluV
4jTK7HdQdgOw2OuQI0kvnQYXLLpEwV8KD3kl8QQR+FLuXfor2MV4AoISEqRZhyy4
FDYbCg/ECBQEdK+bYjeWP6mCMnaywv/3+hzrcnHKN9+mhrAMciVfut1U8Gv4fSrm
6I0sEF3XI9PsJOL72oedYbCLeYyQDBca+fK727cvn0t+88OlKP0QrpIEg0nIdiqr
nNrscnM83AMrEKZUzmYADExWspBfgc8=
-----END CERTIFICATE-----
