Certificate:
    Data:
        Version: 3 (0x2)
        Serial Number:
            01:e3:5b:c4:14:a8:b6:12:50:b5:dd:15:96:18:3c:33
    Signature Algorithm: sha256WithRSAEncryption
        Issuer: C=UT, O=UTOPIA, CN=CSCA16
        Validity
            Not Before: Oct 20 12:46:39 2021 GMT
            Not After : Oct 19 12:46:39 2024 GMT
        Subject: C=UT, CN=E3
        Subject Public Key Info:
            Public Key Algorithm: id-ecPublicKey
                Public-Key: (320 bit)
                pub: 
                    04:42:00:b2:eb:78:12:fb:79:c7:d0:48:6c:82:95:
                    4a:78:66:4a:80:15:54:e7:11:9d:cc:29:fd:26:09:
                    e5:5e:f9:b0:d7:d8:08:da:08:b5:9d:0d:d9:07:e5:
                    77:fa:2c:a1:eb:50:bf:c6:7c:43:01:b9:77:bf:88:
                    2a:1a:64:16:f8:d1:77:01:4c:b7:f6:10:ea:75:8a:
                    11:9e:b3:db:cc:38
                Field Type: prime-field
                Prime:
                    00:d3:5e:47:20:36:bc:4f:b7:e1:3c:78:5e:d2:01:
                    e0:65:f9:8f:cf:a6:f6:f4:0d:ef:4f:92:b9:ec:78:
                    93:ec:28:fc:d4:12:b1:f1:b3:2e:27
                A:   
                    3e:e3:0b:56:8f:ba:b0:f8:83:cc:eb:d4:6d:3f:3b:
                    b8:a2:a7:35:13:f5:eb:79:da:66:19:0e:b0:85:ff:
                    a9:f4:92:f3:75:a9:7d:86:0e:b4
                B:   
                    52:08:83:94:9d:fd:bc:42:d3:ad:19:86:40:68:8a:
                    6f:e1:3f:41:34:95:54:b4:9a:cc:31:dc:cd:88:45:
                    39:81:6f:5e:b4:ac:8f:b1:f1:a6
                Generator (uncompressed):
                    04:43:bd:7e:9a:fb:53:d8:b8:52:89:bc:c4:8e:e5:
                    bf:e6:f2:01:37:d1:0a:08:7e:b6:e7:87:1e:2a:10:
                    a5:99:c7:10:af:8d:0d:39:e2:06:11:14:fd:d0:55:
                    45:ec:1c:c8:ab:40:93:24:7f:77:27:5e:07:43:ff:
                    ed:11:71:82:ea:a9:c7:78:77:aa:ac:6a:c7:d3:52:
                    45:d1:69:2e:8e:e1
                Order: 
                    00:d3:5e:47:20:36:bc:4f:b7:e1:3c:78:5e:d2:01:
                    e0:65:f9:8f:cf:a5:b6:8f:12:a3:2d:48:2e:c7:ee:
                    86:58:e9:86:91:55:5b:44:c5:93:11
                Cofactor:  1 (0x1)
        X509v3 extensions:
            X509v3 Authority Key Identifier: 
                keyid:76:2D:44:3A:35:8D:87:EC:C1:FB:94:5D:42:94:44:65:13:47:CB:1C

            X509v3 Extended Key Usage: critical
                2.23.136.1.1.14.2
    Signature Algorithm: sha256WithRSAEncryption
         12:d8:4f:3a:53:be:72:b6:72:9d:e7:a7:23:8e:c1:47:cc:71:
         c7:8f:97:8a:02:af:ce:e1:06:b8:0a:d6:fb:6b:ff:6c:72:b1:
         5e:72:e2:d7:87:70:c2:86:a3:8d:20:c6:25:de:b2:67:82:78:
         36:c8:fa:55:c2:a1:92:39:b9:d6:48:c1:8d:58:f5:b5:43:e2:
         a2:f0:6f:a9:f8:bd:51:70:93:3a:26:aa:a8:bf:38:04:36:53:
         a2:d3:94:a1:f1:fd:84:94:69:e2:49:25:2d:50:a3:fa:73:0e:
         3a:6e:7f:89:77:12:86:6f:62:ab:79:5d:3c:0f:15:ae:bc:31:
         94:29:81:24:e3:c0:81:a1:dc:37:43:b4:6c:87:33:54:ff:85:
         cc:55:96:15:1a:00:e9:51:2b:44:1d:ba:66:25:46:45:0f:0e:
         83:f7:cb:58:b6:50:b2:49:02:70:4d:f4:6a:5b:2a:69:e9:a2:
         ea:ab:6a:e5:41:6e:a4:1e:b9:1f:3a:67:06:1c:05:4a:d1:9f:
         6c:14:2b:c2:ac:40:a7:41:ba:90:bf:bc:b8:9f:a9:3e:50:ad:
         b8:9c:52:d4:5a:8a:3e:a5:9d:31:ec:f4:37:c7:1e:c4:00:40:
         17:56:7c:81:65:ff:02:10:ab:27:61:36:24:e6:a6:32:e1:29:
         c2:e7:d1:f6:83:85:5c:8f:0b:dd:04:34:ce:2f:f1:45:eb:73:
         c1:91:a8:41:4c:23:fd:51:37:b7:bc:e0:cf:24:00:b3:07:d1:
         6b:0f:fb:5e:8d:6e:c9:1f:b7:12:a0:41:f4:71:1d:1b:68:69:
         46:27:a0:9a:40:f0:c5:8a:f9:07:dd:21:84:74:23:52:c8:da:
         82:51:26:84:9e:e9:07:45:9f:4c:48:f5:6f:ff:20:31:c0:1e:
         42:5c:85:d9:a8:05:1e:e2:ff:a0:cd:73:12:f6:1b:9f:c4:ed:
         c9:30:7b:23:31:af:5d:3d:9b:23:ea:f6:7a:98:19:67:59:13:
         41:2b:f6:d6:1e:86:88:df:22:14:28:71:48:41:10:82:79:11:
         0d:71:c7:7f:59:06:24:7c:b5:d8:1a:38:d5:c8:5b:19:84:a3:
         85:3d:ab:a8:93:1e:6c:cf:dc:8b:61:9a:79:97:3b:3a:6d:a7:
         0f:c5:41:dc:b5:dd:cc:4e:14:11:8a:92:72:07:58:ee:02:ac:
         5e:74:40:1b:04:51:e2:4f:7c:89:21:db:59:40:f1:f4:bd:38:
         02:9e:6c:06:9e:47:3a:af:c7:75:58:cd:0e:e8:51:65:14:67:
         59:82:dc:97:27:35:a1:c4:ac:da:71:16:57:32:9c:12:48:bb:
         91:ab:4b:33:26:f6:14:f9
-----BEGIN CERTIFICATE-----
MIIEYDCCAkigAwIBAgIQAeNbxBSothJQtd0Vlhg8MzANBgkqhkiG9w0BAQsFADAv
MQswCQYDVQQGEwJVVDEPMA0GA1UECgwGVVRPUElBMQ8wDQYDVQQDDAZDU0NBMTYw
HhcNMjExMDIwMTI0NjM5WhcNMjQxMDE5MTI0NjM5WjAaMQswCQYDVQQGEwJVVDEL
MAkGA1UEAwwCRTMwggF1MIIBHQYHKoZIzj0CATCCARACAQEwNAYHKoZIzj0BAQIp
ANNeRyA2vE+34Tx4XtIB4GX5j8+m9vQN70+Suex4k+wo/NQSsfGzLicwVAQoPuML
Vo+6sPiDzOvUbT87uKKnNRP163naZhkOsIX/qfSS83WpfYYOtAQoUgiDlJ39vELT
rRmGQGiKb+E/QTSVVLSazDHczYhFOYFvXrSsj7HxpgRRBEO9fpr7U9i4Uom8xI7l
v+byATfRCgh+tueHHioQpZnHEK+NDTniBhEU/dBVRewcyKtAkyR/dydeB0P/7RFx
guqpx3h3qqxqx9NSRdFpLo7hAikA015HIDa8T7fhPHhe0gHgZfmPz6W2jxKjLUgu
x+6GWOmGkVVbRMWTEQIBAQNSAARCALLreBL7ecfQSGyClUp4ZkqAFVTnEZ3MKf0m
CeVe+bDX2AjaCLWdDdkH5Xf6LKHrUL/GfEMBuXe/iCoaZBb40XcBTLf2EOp1ihGe
s9vMOKM6MDgwHwYDVR0jBBgwFoAUdi1EOjWNh+zB+5RdQpREZRNHyxwwFQYDVR0l
AQH/BAswCQYHZ4EIAQEOAjANBgkqhkiG9w0BAQsFAAOCAgEAEthPOlO+crZyneen
I47BR8xxx4+XigKvzuEGuArW+2v/bHKxXnLi14dwwoajjSDGJd6yZ4J4Nsj6VcKh
kjm51kjBjVj1tUPiovBvqfi9UXCTOiaqqL84BDZTotOUofH9hJRp4kklLVCj+nMO
Om5/iXcShm9iq3ldPA8VrrwxlCmBJOPAgaHcN0O0bIczVP+FzFWWFRoA6VErRB26
ZiVGRQ8Og/fLWLZQskkCcE30alsqaemi6qtq5UFupB65HzpnBhwFStGfbBQrwqxA
p0G6kL+8uJ+pPlCtuJxS1FqKPqWdMez0N8cexABAF1Z8gWX/AhCrJ2E2JOamMuEp
wufR9oOFXI8L3QQ0zi/xRetzwZGoQUwj/VE3t7zgzyQAswfRaw/7Xo1uyR+3EqBB
9HEdG2hpRiegmkDwxYr5B90hhHQjUsjaglEmhJ7pB0WfTEj1b/8gMcAeQlyF2agF
HuL/oM1zEvYbn8TtyTB7IzGvXT2bI+r2epgZZ1kTQSv21h6GiN8iFChxSEEQgnkR
DXHHf1kGJHy12Bo41chbGYSjhT2rqJMebM/ci2GaeZc7Om2nD8VB3LXdzE4UEYqS
cgdY7gKsXnRAGwRR4k98iSHbWUDx9L04Ap5sBp5HOq/HdVjNDuhRZRRnWYLclyc1
ocSs2nEWVzKcEki7katLMyb2FPk=
-----END CERTIFICATE-----
