Certificate:
    Data:
        Version: 3 (0x2)
        Serial Number:
            69:df:ec:cb:7a:5a:2c:06:2c:0b:e5:70:f3:fd:7a:c4:d4:62:63:d2
    Signature Algorithm: sha256WithRSAEncryption
        Issuer: C=UT, O=UTOPIA, CN=CSCA20
        Validity
            Not Before: Oct 20 12:50:53 2021 GMT
            Not After : Oct 19 12:50:53 2024 GMT
        Subject: C=UT, CN=F2
        Subject Public Key Info:
            Public Key Algorithm: id-ecPublicKey
                Public-Key: (256 bit)
                pub: 
                    04:59:b2:50:ba:61:ff:c3:18:2f:e5:b7:11:ef:70:
                    c0:e3:fc:50:51:78:6e:5a:4f:89:a0:70:d8:42:01:
                    3d:1b:19:2e:ea:30:ac:1f:d5:bb:5d:62:c1:1f:a7:
                    d4:30:db:70:74:99:f0:40:b8:13:78:2c:49:a6:a5:
                    10:c0:6f:36:09
                Field Type: prime-field
                Prime:
                    00:a9:fb:57:db:a1:ee:a9:bc:3e:66:0a:90:9d:83:
                    8d:72:6e:3b:f6:23:d5:26:20:28:20:13:48:1d:1f:
                    6e:53:77
                A:   
                    7d:5a:09:75:fc:2c:30:57:ee:f6:75:30:41:7a:ff:
                    e7:fb:80:55:c1:26:dc:5c:6c:e9:4a:4b:44:f3:30:
                    b5:d9
                B:   
                    26:dc:5c:6c:e9:4a:4b:44:f3:30:b5:d9:bb:d7:7c:
                    bf:95:84:16:29:5c:f7:e1:ce:6b:cc:dc:18:ff:8c:
                    07:b6
                Generator (uncompressed):
                    04:8b:d2:ae:b9:cb:7e:57:cb:2c:4b:48:2f:fc:81:
                    b7:af:b9:de:27:e1:e3:bd:23:c2:3a:44:53:bd:9a:
                    ce:32:62:54:7e:f8:35:c3:da:c4:fd:97:f8:46:1a:
                    14:61:1d:c9:c2:77:45:13:2d:ed:8e:54:5c:1d:54:
                    c7:2f:04:69:97
                Order: 
                    00:a9:fb:57:db:a1:ee:a9:bc:3e:66:0a:90:9d:83:
                    8d:71:8c:39:7a:a3:b5:61:a6:f7:90:1e:0e:82:97:
                    48:56:a7
                Cofactor:  1 (0x1)
        X509v3 extensions:
            X509v3 Authority Key Identifier: 
                keyid:C3:BD:8D:75:BA:16:40:38:9B:F3:08:CF:CB:2A:99:0A:21:5D:30:E5

            X509v3 Extended Key Usage: critical
                2.23.136.1.1.14.2
    Signature Algorithm: sha256WithRSAEncryption
         16:eb:74:64:b5:ec:43:a7:a3:8b:58:69:5a:07:91:4b:6a:ca:
         05:4f:5f:fd:a2:20:df:99:3a:0d:cf:1f:69:4b:05:65:74:26:
         5a:61:38:6c:af:a7:76:1e:4a:98:2d:2f:35:51:32:9a:35:93:
         af:50:56:e7:9b:f9:75:71:5b:e4:78:9f:29:7c:55:cb:a7:9f:
         a2:84:73:5d:84:ca:91:e0:a0:2d:fb:fd:73:d6:ef:d0:9f:cd:
         42:ee:08:43:10:1d:e5:d2:bc:1e:dd:2d:85:70:20:89:eb:db:
         c6:ea:57:6e:26:ae:7d:67:8d:3a:00:cf:37:71:29:d3:4c:7c:
         ad:ee:fd:c0:8d:dc:5b:3a:54:07:f6:92:dc:64:2b:5b:58:7f:
         a8:75:0b:30:84:4e:e4:97:99:bb:5f:e4:c3:c1:70:a3:6d:c1:
         8d:c8:cb:17:09:8b:34:f6:59:e2:f0:8b:c0:cf:78:61:0f:df:
         e7:91:bd:f7:79:4a:47:a4:2a:e8:56:6a:da:1f:e6:00:41:e8:
         d2:5d:68:5b:eb:97:24:d6:f3:19:da:79:75:08:ca:dc:80:33:
         77:a3:79:0a:17:ac:57:93:3f:99:fb:dd:ce:b2:de:50:42:1a:
         ff:e0:7f:88:9b:18:78:de:34:c4:82:de:0a:5f:6f:e2:2b:ed:
         07:a3:d8:ff:df:d3:6d:16:97:3c:b4:88:40:8b:f3:e1:82:f3:
         ee:21:0d:60:c3:5d:96:cb:b1:81:4f:d3:c8:83:93:6c:72:9f:
         06:f0:97:cb:ee:a7:9b:3f:49:13:15:10:66:4e:f2:c8:bb:76:
         2f:e2:c2:81:e9:98:a4:f1:49:07:93:a1:ea:96:45:d5:6b:9c:
         7d:90:1a:16:8a:d7:c1:21:48:09:4e:90:f0:f7:37:fc:65:0e:
         08:40:02:f5:9f:16:dd:e7:a3:e3:6a:89:a8:76:3a:a2:08:09:
         5e:f3:b9:11:c2:63:71:aa:6a:80:1c:38:0b:49:4d:c9:21:ae:
         2b:df:49:16:c5:e6:93:3a:03:dc:33:51:8f:ac:6e:f1:c2:63:
         75:b2:18:25:43:89:84:13:c2:df:15:d3:f8:fb:27:3d:49:70:
         c7:db:b2:89:af:f7:37:67:63:31:1f:d6:36:a0:55:c0:9f:cf:
         47:b5:c0:42:6b:7d:4e:3d:65:aa:76:44:fd:13:bd:07:14:99:
         4b:1d:f8:18:6b:fd:60:48:a3:2f:23:d9:e3:9e:15:5b:e0:33:
         15:f5:86:1e:93:32:82:aa:36:03:8e:c0:bb:30:ef:e2:f0:94:
         9f:f4:ce:c4:f4:18:31:66:69:ee:0f:74:9b:84:b8:6e:59:cd:
         42:3b:b1:36:bc:86:ac:43
-----BEGIN CERTIFICATE-----
MIIEIjCCAgqgAwIBAgIUad/sy3paLAYsC+Vw8/16xNRiY9IwDQYJKoZIhvcNAQEL
BQAwLzELMAkGA1UEBhMCVVQxDzANBgNVBAoMBlVUT1BJQTEPMA0GA1UEAwwGQ1ND
QTIwMB4XDTIxMTAyMDEyNTA1M1oXDTI0MTAxOTEyNTA1M1owGjELMAkGA1UEBhMC
VVQxCzAJBgNVBAMMAkYyMIIBMzCB7AYHKoZIzj0CATCB4AIBATAsBgcqhkjOPQEB
AiEAqftX26Huqbw+ZgqQnYONcm479iPVJiAoIBNIHR9uU3cwRAQgfVoJdfwsMFfu
9nUwQXr/5/uAVcEm3Fxs6UpLRPMwtdkEICbcXGzpSktE8zC12bvXfL+VhBYpXPfh
zmvM3Bj/jAe2BEEEi9Kuuct+V8ssS0gv/IG3r7neJ+HjvSPCOkRTvZrOMmJUfvg1
w9rE/Zf4RhoUYR3JwndFEy3tjlRcHVTHLwRplwIhAKn7V9uh7qm8PmYKkJ2DjXGM
OXqjtWGm95AeDoKXSFanAgEBA0IABFmyULph/8MYL+W3Ee9wwOP8UFF4blpPiaBw
2EIBPRsZLuowrB/Vu11iwR+n1DDbcHSZ8EC4E3gsSaalEMBvNgmjOjA4MB8GA1Ud
IwQYMBaAFMO9jXW6FkA4m/MIz8sqmQohXTDlMBUGA1UdJQEB/wQLMAkGB2eBCAEB
DgIwDQYJKoZIhvcNAQELBQADggIBABbrdGS17EOno4tYaVoHkUtqygVPX/2iIN+Z
Og3PH2lLBWV0JlphOGyvp3YeSpgtLzVRMpo1k69QVueb+XVxW+R4nyl8Vcunn6KE
c12EypHgoC37/XPW79CfzULuCEMQHeXSvB7dLYVwIInr28bqV24mrn1njToAzzdx
KdNMfK3u/cCN3Fs6VAf2ktxkK1tYf6h1CzCETuSXmbtf5MPBcKNtwY3IyxcJizT2
WeLwi8DPeGEP3+eRvfd5SkekKuhWatof5gBB6NJdaFvrlyTW8xnaeXUIytyAM3ej
eQoXrFeTP5n73c6y3lBCGv/gf4ibGHjeNMSC3gpfb+Ir7Qej2P/f020Wlzy0iECL
8+GC8+4hDWDDXZbLsYFP08iDk2xynwbwl8vup5s/SRMVEGZO8si7di/iwoHpmKTx
SQeToeqWRdVrnH2QGhaK18EhSAlOkPD3N/xlDghAAvWfFt3no+Nqiah2OqIICV7z
uRHCY3GqaoAcOAtJTckhrivfSRbF5pM6A9wzUY+sbvHCY3WyGCVDiYQTwt8V0/j7
Jz1JcMfbsomv9zdnYzEf1jagVcCfz0e1wEJrfU49Zap2RP0TvQcUmUsd+Bhr/WBI
oy8j2eOeFVvgMxX1hh6TMoKqNgOOwLsw7+LwlJ/0zsT0GDFmae4PdJuEuG5ZzUI7
sTa8hqxD
-----END CERTIFICATE-----
