Certificate:
    Data:
        Version: 3 (0x2)
        Serial Number:
            69:df:ec:cb:7a:5a:2c:06:2c:0b:e5:70:f3:fd:7a:c4:d4:62:63:d4
    Signature Algorithm: sha256WithRSAEncryption
        Issuer: C=UT, O=UTOPIA, CN=CSCA20
        Validity
            Not Before: Oct 20 12:51:07 2021 GMT
            Not After : Oct 19 12:51:07 2024 GMT
        Subject: C=UT, CN=F4
        Subject Public Key Info:
            Public Key Algorithm: id-ecPublicKey
                Public-Key: (512 bit)
                pub: 
                    04:50:b1:cf:50:f1:1e:0c:b7:67:53:cd:b0:f4:e2:
                    a4:05:53:35:17:06:f9:74:98:24:96:27:4e:a3:a8:
                    1a:f5:3a:84:a6:4b:bd:9a:de:2d:64:8d:ec:83:eb:
                    c5:6c:e3:e6:43:43:be:46:e3:74:22:c3:e0:6d:46:
                    ed:c1:68:db:d2:6d:77:c5:5b:97:9f:e1:3a:cf:70:
                    78:c9:1c:35:ea:ae:b4:0f:84:c9:37:bd:c4:74:db:
                    10:24:e3:6a:40:5e:cb:f8:87:a9:8d:1c:9f:14:78:
                    40:7f:86:d0:ec:a6:f5:a6:16:78:67:ff:d9:1a:e0:
                    2a:0e:4d:c3:59:b5:d8:40:99
                Field Type: prime-field
                Prime:
                    00:aa:dd:9d:b8:db:e9:c4:8b:3f:d4:e6:ae:33:c9:
                    fc:07:cb:30:8d:b3:b3:c9:d2:0e:d6:63:9c:ca:70:
                    33:08:71:7d:4d:9b:00:9b:c6:68:42:ae:cd:a1:2a:
                    e6:a3:80:e6:28:81:ff:2f:2d:82:c6:85:28:aa:60:
                    56:58:3a:48:f3
                A:   
                    78:30:a3:31:8b:60:3b:89:e2:32:71:45:ac:23:4c:
                    c5:94:cb:dd:8d:3d:f9:16:10:a8:34:41:ca:ea:98:
                    63:bc:2d:ed:5d:5a:a8:25:3a:a1:0a:2e:f1:c9:8b:
                    9a:c8:b5:7f:11:17:a7:2b:f2:c7:b9:e7:c1:ac:4d:
                    77:fc:94:ca
                B:   
                    3d:f9:16:10:a8:34:41:ca:ea:98:63:bc:2d:ed:5d:
                    5a:a8:25:3a:a1:0a:2e:f1:c9:8b:9a:c8:b5:7f:11:
                    17:a7:2b:f2:c7:b9:e7:c1:ac:4d:77:fc:94:ca:dc:
                    08:3e:67:98:40:50:b7:5e:ba:e5:dd:28:09:bd:63:
                    80:16:f7:23
                Generator (uncompressed):
                    04:81:ae:e4:bd:d8:2e:d9:64:5a:21:32:2e:9c:4c:
                    6a:93:85:ed:9f:70:b5:d9:16:c1:b4:3b:62:ee:f4:
                    d0:09:8e:ff:3b:1f:78:e2:d0:d4:8d:50:d1:68:7b:
                    93:b9:7d:5f:7c:6d:50:47:40:6a:5e:68:8b:35:22:
                    09:bc:b9:f8:22:7d:de:38:5d:56:63:32:ec:c0:ea:
                    bf:a9:cf:78:22:fd:f2:09:f7:00:24:a5:7b:1a:a0:
                    00:c5:5b:88:1f:81:11:b2:dc:de:49:4a:5f:48:5e:
                    5b:ca:4b:d8:8a:27:63:ae:d1:ca:2b:2f:a8:f0:54:
                    06:78:cd:1e:0f:3a:d8:08:92
                Order: 
                    00:aa:dd:9d:b8:db:e9:c4:8b:3f:d4:e6:ae:33:c9:
                    fc:07:cb:30:8d:b3:b3:c9:d2:0e:d6:63:9c:ca:70:
                    33:08:70:55:3e:5c:41:4c:a9:26:19:41:86:61:19:
                    7f:ac:10:47:1d:b1:d3:81:08:5d:da:dd:b5:87:96:
                    82:9c:a9:00:69
                Cofactor:  1 (0x1)
        X509v3 extensions:
            X509v3 Authority Key Identifier: 
                keyid:C3:BD:8D:75:BA:16:40:38:9B:F3:08:CF:CB:2A:99:0A:21:5D:30:E5

            X509v3 Extended Key Usage: critical
                2.23.136.1.1.14.2
    Signature Algorithm: sha256WithRSAEncryption
         78:a8:15:0b:5d:ed:1e:30:1c:49:eb:77:e8:69:84:3a:0f:70:
         50:f0:73:70:02:af:e5:c6:17:4b:7a:5c:11:87:42:82:b4:23:
         ef:75:cb:cc:2c:d9:99:d6:3e:7b:9f:2c:84:62:cd:de:ff:5c:
         2e:dd:4d:99:98:14:1e:36:1a:34:de:60:c4:2b:52:a0:ff:c7:
         41:4b:ca:46:76:9a:fd:b3:cf:a7:8a:4c:19:05:5d:a3:23:2b:
         17:f7:e3:a0:d0:60:53:56:9d:37:be:78:80:9d:44:d3:56:75:
         fe:28:8c:3a:b2:3c:52:38:1d:e4:15:03:93:af:e3:38:f7:4a:
         a9:db:b4:a4:74:85:6a:d2:a8:ff:ca:9b:2b:e9:0e:e7:a4:fe:
         41:78:fe:0e:70:f1:e8:5f:bc:d0:28:ec:cd:d5:24:06:cf:b9:
         97:b3:58:68:9f:2a:fe:a2:99:8e:d9:64:18:0d:79:81:ea:57:
         12:9e:c1:8f:8b:7b:41:30:e9:de:69:66:e6:87:a0:e3:d8:a4:
         90:93:7a:09:50:08:9d:c1:72:96:cf:f3:af:61:94:4c:82:40:
         24:3d:d9:84:a3:09:f7:72:a2:26:2c:39:8f:f3:cf:98:91:00:
         7c:ee:f0:e5:ab:68:05:2b:be:be:f1:6d:ce:c2:48:0b:bc:03:
         15:3b:bf:77:a7:fb:f4:41:36:78:ba:a7:c1:e7:05:2a:62:86:
         36:09:6b:02:ab:fd:e9:30:e4:27:c9:b6:0a:bf:91:c8:cc:1c:
         1d:04:d6:ac:9a:59:e9:1b:eb:c3:d5:d4:12:2a:b6:f7:ed:25:
         31:86:05:47:f6:15:17:c5:64:5d:4f:10:79:3b:e0:d3:79:29:
         e7:49:da:e5:92:1e:8a:a4:67:6f:c6:23:93:0f:e6:15:96:bf:
         c5:c6:83:ac:36:30:72:7e:a9:8c:52:03:1b:85:e4:1b:ee:99:
         0d:a9:67:52:60:46:78:6b:a6:10:19:18:7c:67:58:b4:18:74:
         eb:12:a8:c4:91:9c:6b:0c:6e:7d:a1:43:d8:66:e2:d8:5b:af:
         59:ed:75:f5:b6:5f:cf:d5:33:42:c9:20:5d:2c:52:35:f8:54:
         2e:86:32:23:fd:2b:44:d5:cb:70:da:f7:77:59:22:a9:e1:71:
         2a:8f:8b:b4:b2:d1:d3:8e:15:8d:ad:81:0c:a3:ae:a6:42:15:
         f1:2f:18:b3:1f:57:f6:a7:eb:9f:d8:3b:d7:ba:a2:3d:62:40:
         26:6f:68:4a:77:ef:0a:31:69:07:79:d5:3f:df:fa:4c:bc:b0:
         df:b1:8f:34:81:28:97:4e:43:60:a5:09:92:43:7f:a8:33:71:
         89:dc:ad:96:54:53:6e:fe
-----BEGIN CERTIFICATE-----
MIIFJzCCAw+gAwIBAgIUad/sy3paLAYsC+Vw8/16xNRiY9QwDQYJKoZIhvcNAQEL
BQAwLzELMAkGA1UEBhMCVVQxDzANBgNVBAoMBlVUT1BJQTEPMA0GA1UEAwwGQ1ND
QTIwMB4XDTIxMTAyMDEyNTEwN1oXDTI0MTAxOTEyNTEwN1owGjELMAkGA1UEBhMC
VVQxCzAJBgNVBAMMAkY0MIICODCCAa8GByqGSM49AgEwggGiAgEBMEwGByqGSM49
AQECQQCq3Z242+nEiz/U5q4zyfwHyzCNs7PJ0g7WY5zKcDMIcX1NmwCbxmhCrs2h
KuajgOYogf8vLYLGhSiqYFZYOkjzMIGEBEB4MKMxi2A7ieIycUWsI0zFlMvdjT35
FhCoNEHK6phjvC3tXVqoJTqhCi7xyYuayLV/ERenK/LHuefBrE13/JTKBEA9+RYQ
qDRByuqYY7wt7V1aqCU6oQou8cmLmsi1fxEXpyvyx7nnwaxNd/yUytwIPmeYQFC3
Xrrl3SgJvWOAFvcjBIGBBIGu5L3YLtlkWiEyLpxMapOF7Z9wtdkWwbQ7Yu700AmO
/zsfeOLQ1I1Q0Wh7k7l9X3xtUEdAal5oizUiCby5+CJ93jhdVmMy7MDqv6nPeCL9
8gn3ACSlexqgAMVbiB+BEbLc3klKX0heW8pL2IonY67RyisvqPBUBnjNHg862AiS
AkEAqt2duNvpxIs/1OauM8n8B8swjbOzydIO1mOcynAzCHBVPlxBTKkmGUGGYRl/
rBBHHbHTgQhd2t21h5aCnKkAaQIBAQOBggAEULHPUPEeDLdnU82w9OKkBVM1Fwb5
dJgklidOo6ga9TqEpku9mt4tZI3sg+vFbOPmQ0O+RuN0IsPgbUbtwWjb0m13xVuX
n+E6z3B4yRw16q60D4TJN73EdNsQJONqQF7L+IepjRyfFHhAf4bQ7Kb1phZ4Z//Z
GuAqDk3DWbXYQJmjOjA4MB8GA1UdIwQYMBaAFMO9jXW6FkA4m/MIz8sqmQohXTDl
MBUGA1UdJQEB/wQLMAkGB2eBCAEBDgIwDQYJKoZIhvcNAQELBQADggIBAHioFQtd
7R4wHEnrd+hphDoPcFDwc3ACr+XGF0t6XBGHQoK0I+91y8ws2ZnWPnufLIRizd7/
XC7dTZmYFB42GjTeYMQrUqD/x0FLykZ2mv2zz6eKTBkFXaMjKxf346DQYFNWnTe+
eICdRNNWdf4ojDqyPFI4HeQVA5Ov4zj3SqnbtKR0hWrSqP/KmyvpDuek/kF4/g5w
8ehfvNAo7M3VJAbPuZezWGifKv6imY7ZZBgNeYHqVxKewY+Le0Ew6d5pZuaHoOPY
pJCTeglQCJ3BcpbP869hlEyCQCQ92YSjCfdyoiYsOY/zz5iRAHzu8OWraAUrvr7x
bc7CSAu8AxU7v3en+/RBNni6p8HnBSpihjYJawKr/ekw5CfJtgq/kcjMHB0E1qya
Wekb68PV1BIqtvftJTGGBUf2FRfFZF1PEHk74NN5KedJ2uWSHoqkZ2/GI5MP5hWW
v8XGg6w2MHJ+qYxSAxuF5BvumQ2pZ1JgRnhrphAZGHxnWLQYdOsSqMSRnGsMbn2h
Q9hm4thbr1ntdfW2X8/VM0LJIF0sUjX4VC6GMiP9K0TVy3Da93dZIqnhcSqPi7Sy
0dOOFY2tgQyjrqZCFfEvGLMfV/an65/YO9e6oj1iQCZvaEp37woxaQd51T/f+ky8
sN+xjzSBKJdOQ2ClCZJDf6gzcYncrZZUU27+
-----END CERTIFICATE-----
