Certificate:
    Data:
        Version: 3 (0x2)
        Serial Number:
            69:df:ec:cb:7a:5a:2c:06:2c:0b:e5:70:f3:fd:7a:c4:d4:62:63:d3
    Signature Algorithm: sha256WithRSAEncryption
        Issuer: C=UT, O=UTOPIA, CN=CSCA20
        Validity
            Not Before: Oct 20 12:50:59 2021 GMT
            Not After : Oct 19 12:50:59 2024 GMT
        Subject: C=UT, CN=F3
        Subject Public Key Info:
            Public Key Algorithm: id-ecPublicKey
                Public-Key: (320 bit)
                pub: 
                    04:43:01:1a:9e:03:16:11:50:c4:03:f7:5b:aa:97:
                    5e:78:0f:8a:0c:42:3b:16:63:bb:2f:60:c0:55:31:
                    b5:91:0b:6a:b0:77:fb:35:6d:89:7f:28:d9:27:b2:
                    00:9f:e1:10:69:a4:18:21:e9:04:16:2f:8c:da:94:
                    e8:5d:2e:42:0a:4a:a1:3e:85:eb:52:d4:fd:fd:6f:
                    06:da:ba:90:1a:40
                Field Type: prime-field
                Prime:
                    00:d3:5e:47:20:36:bc:4f:b7:e1:3c:78:5e:d2:01:
                    e0:65:f9:8f:cf:a6:f6:f4:0d:ef:4f:92:b9:ec:78:
                    93:ec:28:fc:d4:12:b1:f1:b3:2e:27
                A:   
                    3e:e3:0b:56:8f:ba:b0:f8:83:cc:eb:d4:6d:3f:3b:
                    b8:a2:a7:35:13:f5:eb:79:da:66:19:0e:b0:85:ff:
                    a9:f4:92:f3:75:a9:7d:86:0e:b4
                B:   
                    52:08:83:94:9d:fd:bc:42:d3:ad:19:86:40:68:8a:
                    6f:e1:3f:41:34:95:54:b4:9a:cc:31:dc:cd:88:45:
                    39:81:6f:5e:b4:ac:8f:b1:f1:a6
                Generator (uncompressed):
                    04:43:bd:7e:9a:fb:53:d8:b8:52:89:bc:c4:8e:e5:
                    bf:e6:f2:01:37:d1:0a:08:7e:b6:e7:87:1e:2a:10:
                    a5:99:c7:10:af:8d:0d:39:e2:06:11:14:fd:d0:55:
                    45:ec:1c:c8:ab:40:93:24:7f:77:27:5e:07:43:ff:
                    ed:11:71:82:ea:a9:c7:78:77:aa:ac:6a:c7:d3:52:
                    45:d1:69:2e:8e:e1
                Order: 
                    00:d3:5e:47:20:36:bc:4f:b7:e1:3c:78:5e:d2:01:
                    e0:65:f9:8f:cf:a5:b6:8f:12:a3:2d:48:2e:c7:ee:
                    86:58:e9:86:91:55:5b:44:c5:93:11
                Cofactor:  1 (0x1)
        X509v3 extensions:
            X509v3 Authority Key Identifier: 
                keyid:C3:BD:8D:75:BA:16:40:38:9B:F3:08:CF:CB:2A:99:0A:21:5D:30:E5

            X509v3 Extended Key Usage: critical
                2.23.136.1.1.14.2
    Signature Algorithm: sha256WithRSAEncryption
         63:21:f1:9e:e9:f3:a2:35:3c:22:3e:4b:9b:c4:c2:e1:b9:03:
         c9:e3:51:5c:86:a0:73:8b:37:76:83:53:43:2e:12:08:18:67:
         98:8f:89:9b:25:59:64:07:fb:32:9f:aa:fb:75:d5:73:91:3f:
         b2:ca:1f:63:fb:4d:c0:0c:69:0b:5b:2d:15:25:4e:06:67:f3:
         90:dc:84:34:cc:6f:d7:f9:b8:4b:89:24:55:23:ca:0e:b2:18:
         bf:ff:00:70:ab:e0:bb:10:62:fe:e6:14:2d:5f:70:d2:66:9c:
         c9:ab:43:5d:18:2c:6e:e3:70:85:a0:3e:1d:e5:c0:ac:48:c5:
         fa:fe:ea:a3:ba:7e:ca:70:8c:ad:50:4f:da:4d:ab:11:e0:eb:
         ff:7f:97:84:99:bc:49:3a:60:c6:e3:7c:9c:e5:56:90:6c:85:
         42:8c:ab:37:cc:94:18:be:df:20:78:f2:e1:4b:52:9e:2c:07:
         19:10:9a:d7:34:c0:6a:e8:50:01:06:e7:73:f1:8c:db:74:f4:
         81:66:dd:af:f2:37:bf:32:5d:1b:0b:8e:43:f5:bc:16:5c:aa:
         de:78:0d:d2:38:80:c8:7e:d4:0e:0a:2e:f0:2a:70:e0:72:d3:
         ae:3e:1d:37:e7:2c:38:11:8f:81:63:80:2f:9b:7d:56:17:09:
         10:d5:cd:b0:0e:4a:71:b8:cd:4f:f2:f4:4e:b1:cc:7d:93:41:
         28:b7:23:23:27:a1:44:96:0a:d8:00:51:9e:fe:0e:92:bd:8c:
         d0:71:9d:d3:69:47:61:e9:2f:f9:5b:82:e5:41:45:c4:45:5d:
         bc:f6:ba:6e:dc:55:1a:32:46:f8:40:24:be:14:e9:d8:31:68:
         f1:21:8d:03:56:81:bb:01:5d:c1:e5:5a:25:6c:12:97:1a:54:
         d6:30:36:d6:fc:1e:4b:fd:41:35:2e:9d:4f:cc:8e:0b:96:35:
         ed:c8:2f:ea:16:97:b8:17:4f:2e:8d:59:4b:70:5d:7b:df:18:
         23:13:d4:95:0c:9b:e7:c0:d4:2d:f0:9f:55:49:3c:9a:4e:34:
         cb:65:a4:fc:a5:1f:b5:67:57:b5:2f:52:56:57:ff:e9:e8:57:
         1d:ca:2f:ff:1e:2f:eb:87:f3:b1:ba:c1:23:74:83:aa:de:bb:
         9e:84:c8:03:32:3a:4e:f9:8a:34:8a:23:d9:a6:8a:73:d7:c1:
         94:56:ef:a0:34:d1:11:a1:ba:a0:ec:d8:90:27:53:83:82:db:
         18:84:4c:60:cf:b2:2c:46:46:df:2e:6f:9c:25:b2:6a:f6:19:
         7f:a6:45:53:8e:b8:b8:88:9c:71:bb:10:42:1d:25:1c:c7:74:
         cd:c8:04:10:53:3c:15:d0
-----BEGIN CERTIFICATE-----
MIIEZDCCAkygAwIBAgIUad/sy3paLAYsC+Vw8/16xNRiY9MwDQYJKoZIhvcNAQEL
BQAwLzELMAkGA1UEBhMCVVQxDzANBgNVBAoMBlVUT1BJQTEPMA0GA1UEAwwGQ1ND
QTIwMB4XDTIxMTAyMDEyNTA1OVoXDTI0MTAxOTEyNTA1OVowGjELMAkGA1UEBhMC
VVQxCzAJBgNVBAMMAkYzMIIBdTCCAR0GByqGSM49AgEwggEQAgEBMDQGByqGSM49
AQECKQDTXkcgNrxPt+E8eF7SAeBl+Y/Ppvb0De9PkrnseJPsKPzUErHxsy4nMFQE
KD7jC1aPurD4g8zr1G0/O7iipzUT9et52mYZDrCF/6n0kvN1qX2GDrQEKFIIg5Sd
/bxC060ZhkBoim/hP0E0lVS0mswx3M2IRTmBb160rI+x8aYEUQRDvX6a+1PYuFKJ
vMSO5b/m8gE30QoIfrbnhx4qEKWZxxCvjQ054gYRFP3QVUXsHMirQJMkf3cnXgdD
/+0RcYLqqcd4d6qsasfTUkXRaS6O4QIpANNeRyA2vE+34Tx4XtIB4GX5j8+lto8S
oy1ILsfuhljphpFVW0TFkxECAQEDUgAEQwEangMWEVDEA/dbqpdeeA+KDEI7FmO7
L2DAVTG1kQtqsHf7NW2JfyjZJ7IAn+EQaaQYIekEFi+M2pToXS5CCkqhPoXrUtT9
/W8G2rqQGkCjOjA4MB8GA1UdIwQYMBaAFMO9jXW6FkA4m/MIz8sqmQohXTDlMBUG
A1UdJQEB/wQLMAkGB2eBCAEBDgIwDQYJKoZIhvcNAQELBQADggIBAGMh8Z7p86I1
PCI+S5vEwuG5A8njUVyGoHOLN3aDU0MuEggYZ5iPiZslWWQH+zKfqvt11XORP7LK
H2P7TcAMaQtbLRUlTgZn85DchDTMb9f5uEuJJFUjyg6yGL//AHCr4LsQYv7mFC1f
cNJmnMmrQ10YLG7jcIWgPh3lwKxIxfr+6qO6fspwjK1QT9pNqxHg6/9/l4SZvEk6
YMbjfJzlVpBshUKMqzfMlBi+3yB48uFLUp4sBxkQmtc0wGroUAEG53PxjNt09IFm
3a/yN78yXRsLjkP1vBZcqt54DdI4gMh+1A4KLvAqcOBy064+HTfnLDgRj4FjgC+b
fVYXCRDVzbAOSnG4zU/y9E6xzH2TQSi3IyMnoUSWCtgAUZ7+DpK9jNBxndNpR2Hp
L/lbguVBRcRFXbz2um7cVRoyRvhAJL4U6dgxaPEhjQNWgbsBXcHlWiVsEpcaVNYw
Ntb8Hkv9QTUunU/MjguWNe3IL+oWl7gXTy6NWUtwXXvfGCMT1JUMm+fA1C3wn1VJ
PJpONMtlpPylH7VnV7UvUlZX/+noVx3KL/8eL+uH87G6wSN0g6reu56EyAMyOk75
ijSKI9mminPXwZRW76A00RGhuqDs2JAnU4OC2xiETGDPsixGRt8ub5wlsmr2GX+m
RVOOuLiInHG7EEIdJRzHdM3IBBBTPBXQ
-----END CERTIFICATE-----
