Certificate:
    Data:
        Version: 3 (0x2)
        Serial Number:
            69:df:ec:cb:7a:5a:2c:06:2c:0b:e5:70:f3:fd:7a:c4:d4:62:63:d1
    Signature Algorithm: sha256WithRSAEncryption
        Issuer: C=UT, O=UTOPIA, CN=CSCA20
        Validity
            Not Before: Oct 20 12:50:46 2021 GMT
            Not After : Oct 19 12:50:46 2024 GMT
        Subject: C=UT, CN=F1
        Subject Public Key Info:
            Public Key Algorithm: id-ecPublicKey
                Public-Key: (224 bit)
                pub: 
                    04:cb:8b:56:31:8b:6c:0b:6f:4d:32:5f:7a:8a:6a:
                    53:84:27:87:d5:8b:a8:31:a4:1d:13:e9:52:e9:34:
                    1a:56:4c:8b:f2:31:d9:47:65:8c:d9:d7:65:85:f5:
                    f7:3b:84:4f:2f:74:97:c0:a4:12:2a:03
                Field Type: prime-field
                Prime:
                    00:d7:c1:34:aa:26:43:66:86:2a:18:30:25:75:d1:
                    d7:87:b0:9f:07:57:97:da:89:f5:7e:c8:c0:ff
                A:   
                    68:a5:e6:2c:a9:ce:6c:1c:29:98:03:a6:c1:53:0b:
                    51:4e:18:2a:d8:b0:04:2a:59:ca:d2:9f:43
                B:   
                    25:80:f6:3c:cf:e4:41:38:87:07:13:b1:a9:23:69:
                    e3:3e:21:35:d2:66:db:b3:72:38:6c:40:0b
                Generator (uncompressed):
                    04:0d:90:29:ad:2c:7e:5c:f4:34:08:23:b2:a8:7d:
                    c6:8c:9e:4c:e3:17:4c:1e:6e:fd:ee:12:c0:7d:58:
                    aa:56:f7:72:c0:72:6f:24:c6:b8:9e:4e:cd:ac:24:
                    35:4b:9e:99:ca:a3:f6:d3:76:14:02:cd
                Order: 
                    00:d7:c1:34:aa:26:43:66:86:2a:18:30:25:75:d0:
                    fb:98:d1:16:bc:4b:6d:de:bc:a3:a5:a7:93:9f
                Cofactor:  1 (0x1)
        X509v3 extensions:
            X509v3 Authority Key Identifier: 
                keyid:C3:BD:8D:75:BA:16:40:38:9B:F3:08:CF:CB:2A:99:0A:21:5D:30:E5

            X509v3 Extended Key Usage: critical
                2.23.136.1.1.14.2
    Signature Algorithm: sha256WithRSAEncryption
         0c:f5:71:df:3a:cc:48:ee:02:df:52:fa:e6:7b:f2:7c:12:ee:
         8d:23:59:f1:f4:b1:04:8a:01:40:20:26:6f:1a:a3:c1:71:c6:
         8b:ee:7e:60:5e:e6:75:55:3a:8c:dc:5e:38:63:93:12:13:04:
         01:11:0e:cb:2b:21:d1:84:0b:72:99:6e:03:85:02:db:26:eb:
         88:1a:db:24:95:36:49:2b:3e:dd:6e:15:64:bf:33:f9:78:e2:
         53:34:cf:6c:11:02:de:98:56:1d:9c:78:a8:76:af:b2:a2:d7:
         2d:04:79:44:d6:e2:41:63:38:ed:8e:4f:4b:ea:10:1a:fa:17:
         73:ef:a2:3a:fd:14:a5:6a:41:1f:9f:fd:68:91:cd:c4:eb:0e:
         72:d8:c1:19:41:d5:81:5b:dc:e1:10:4f:36:eb:92:5f:dc:15:
         12:a5:fd:78:fc:83:de:84:9b:44:7e:2a:82:a5:d3:df:54:cb:
         44:a6:c6:cd:7b:f6:8f:a0:20:83:37:5a:60:cf:46:e1:df:3f:
         76:2e:4a:78:2b:20:af:f1:80:11:14:c1:6a:95:70:37:ee:4d:
         41:a5:39:59:3d:03:e4:bf:85:66:e8:df:7b:c7:b2:70:fb:04:
         03:84:04:6b:2a:26:ee:d4:71:57:30:a2:2f:32:31:aa:ba:5f:
         3f:cd:18:56:58:ba:13:f1:10:d4:83:05:a3:07:d5:07:84:c2:
         82:18:a0:f7:8b:fa:19:17:aa:c1:24:04:9f:78:4f:cb:0f:65:
         73:75:37:1b:db:46:5f:0f:3b:3f:3b:d7:4d:22:d2:da:e5:15:
         5f:34:97:a8:1f:7c:7a:31:a0:b2:c6:d7:6e:07:31:37:01:26:
         ef:9f:8a:13:03:d6:03:19:81:dc:4f:37:64:4f:a9:0b:ac:03:
         57:9b:26:92:72:ed:ed:43:f5:96:80:44:35:e2:04:63:27:f7:
         da:9e:0b:c0:a9:f8:d3:b8:35:54:16:ac:56:87:cb:92:4d:b4:
         dd:e3:b8:b2:e3:75:4f:52:79:50:41:6e:8b:4f:af:a8:50:90:
         05:5e:bd:88:4e:b7:2b:87:f7:95:71:b6:39:df:18:d8:a6:bd:
         ab:a9:89:fd:8f:fa:dc:3f:fb:6f:28:31:0f:ab:26:f6:46:ff:
         f3:6b:fd:04:a7:88:5e:a5:96:8d:0a:e4:30:a0:b4:49:cd:7c:
         44:a0:61:e2:e8:db:6a:7e:51:4b:5e:c6:d3:0f:7e:f7:f6:37:
         41:c2:33:e1:d1:1a:1c:da:c8:2f:6b:19:31:d8:4d:b7:63:e9:
         df:73:64:65:bd:62:5e:c6:de:d3:77:0f:7f:1e:b2:24:14:0e:
         5e:85:04:a6:75:6c:55:4a
-----BEGIN CERTIFICATE-----
MIIEAjCCAeqgAwIBAgIUad/sy3paLAYsC+Vw8/16xNRiY9EwDQYJKoZIhvcNAQEL
BQAwLzELMAkGA1UEBhMCVVQxDzANBgNVBAoMBlVUT1BJQTEPMA0GA1UEAwwGQ1ND
QTIwMB4XDTIxMTAyMDEyNTA0NloXDTI0MTAxOTEyNTA0NlowGjELMAkGA1UEBhMC
VVQxCzAJBgNVBAMMAkYxMIIBEzCB1AYHKoZIzj0CATCByAIBATAoBgcqhkjOPQEB
Ah0A18E0qiZDZoYqGDAlddHXh7CfB1eX2on1fsjA/zA8BBxopeYsqc5sHCmYA6bB
UwtRThgq2LAEKlnK0p9DBBwlgPY8z+RBOIcHE7GpI2njPiE10mbbs3I4bEALBDkE
DZAprSx+XPQ0CCOyqH3GjJ5M4xdMHm797hLAfViqVvdywHJvJMa4nk7NrCQ1S56Z
yqP203YUAs0CHQDXwTSqJkNmhioYMCV10PuY0Ra8S23evKOlp5OfAgEBAzoABMuL
VjGLbAtvTTJfeopqU4Qnh9WLqDGkHRPpUuk0GlZMi/Ix2UdljNnXZYX19zuETy90
l8CkEioDozowODAfBgNVHSMEGDAWgBTDvY11uhZAOJvzCM/LKpkKIV0w5TAVBgNV
HSUBAf8ECzAJBgdngQgBAQ4CMA0GCSqGSIb3DQEBCwUAA4ICAQAM9XHfOsxI7gLf
Uvrme/J8Eu6NI1nx9LEEigFAICZvGqPBccaL7n5gXuZ1VTqM3F44Y5MSEwQBEQ7L
KyHRhAtymW4DhQLbJuuIGtsklTZJKz7dbhVkvzP5eOJTNM9sEQLemFYdnHiodq+y
otctBHlE1uJBYzjtjk9L6hAa+hdz76I6/RSlakEfn/1okc3E6w5y2MEZQdWBW9zh
EE8265Jf3BUSpf14/IPehJtEfiqCpdPfVMtEpsbNe/aPoCCDN1pgz0bh3z92Lkp4
KyCv8YARFMFqlXA37k1BpTlZPQPkv4Vm6N97x7Jw+wQDhARrKibu1HFXMKIvMjGq
ul8/zRhWWLoT8RDUgwWjB9UHhMKCGKD3i/oZF6rBJASfeE/LD2VzdTcb20ZfDzs/
O9dNItLa5RVfNJeoH3x6MaCyxtduBzE3ASbvn4oTA9YDGYHcTzdkT6kLrANXmyaS
cu3tQ/WWgEQ14gRjJ/fangvAqfjTuDVUFqxWh8uSTbTd47iy43VPUnlQQW6LT6+o
UJAFXr2ITrcrh/eVcbY53xjYpr2rqYn9j/rcP/tvKDEPqyb2Rv/za/0Ep4hepZaN
CuQwoLRJzXxEoGHi6NtqflFLXsbTD3739jdBwjPh0Roc2sgvaxkx2E23Y+nfc2Rl
vWJext7Tdw9/HrIkFA5ehQSmdWxVSg==
-----END CERTIFICATE-----
